     1                                  [org 0x0100]
     2                                  section .text
     3 00000000 E96008                  jmp start
     4                                  ;print function takes 3 parameters
     5                                  ;1. array to print bp+4
     6                                  ;2. x displacement bp+6
     7                                  ;3. y displacement bp+8
     8                                  ;4. size of array  bp+10
     9                                  print:
    10 00000003 55                      	push bp
    11 00000004 89E5                    	mov bp,sp
    12 00000006 83EC02                  	sub sp,2 ;bp-2 is just the amount of pixels in one row,
    13 00000009 C746FE0000              	mov word[bp-2],0x0000
    14 0000000E 50                      	push ax
    15 0000000F 53                      	push bx
    16 00000010 51                      	push cx
    17 00000011 52                      	push dx
    18 00000012 57                      	push di
    19 00000013 56                      	push si
    20 00000014 06                      	push es
    21 00000015 8B1E[1404]              	mov bx,[buffer]
    22 00000019 8EC3                    	mov es,bx
    23 0000001B 8B7604                  	mov si,[bp+4]
    24                                  	;calculate number of pixels in row
    25                                  	rownum:
    26 0000001E 83C601                  			add si,1
    27 00000021 8A04                    			mov al,[si]
    28 00000023 3CFE                    			cmp al,254
    29 00000025 75F7                    			jne rownum
    30 00000027 89F0                    	mov ax,si
    31 00000029 8B5E04                  	mov bx,[bp+4]
    32 0000002C 29D8                    	sub ax,bx
    33 0000002E 8946FE                  	mov [bp-2],ax
    34                                  	;calculate start pos of di
    35 00000031 8B4608                  	mov ax,[bp+8]
    36 00000034 3B06[0E04]              	cmp word ax,[printmasky]
    37 00000038 7D03                    	jnl printskipdi
    38 0000003A A1[0E04]                	mov ax,[printmasky]
    39                                  	printskipdi:
    40 0000003D B94001                  	mov cx,320
    41 00000040 31D2                    	xor dx,dx
    42 00000042 F7E1                    	mul cx
    43 00000044 8B4E06                  	mov cx,[bp+6]
    44 00000047 01C8                    	add ax,cx
    45 00000049 89C7                    	mov di,ax
    46                                  	;calculate start pos of si
    47 0000004B 8B4E0A                  	mov cx,[bp+10] ;move length of array into cx
    48 0000004E 8B7604                  	mov si,[bp+4] ;move array into si
    49 00000051 A1[0E04]                	mov ax,[printmasky] ; check if printmasky-y <= 0
    50 00000054 2B4608                  	sub ax,[bp+8]
    51 00000057 83F800                  	cmp ax,0
    52 0000005A 7E10                    	jng printloop ;if printmasky-y<=0 then we go to straight to printloop as no rows need to be skipped
    53 0000005C 8B5EFE                  	mov bx,[bp-2] ;if printmasky-y>0 then we need to skip some rows, first we check if (printmasky-y)*(horizontal res) < total pixels
    54 0000005F 43                      	inc bx       
    55 00000060 31D2                    	xor dx,dx
    56 00000062 F7E3                    	mul bx
    57 00000064 39C8                    	cmp ax,cx ;cx has total amount of pixels in image, if skip amount is greater than or equal to it we just end printing otherwise we go to print loop while skipping some pixels
    58 00000066 735F                    	jae printending 
    59 00000068 01C6                    	add si,ax
    60 0000006A 29C1                    	sub cx,ax
    61                                  	;print every byte
    62                                  	printloop:
    63 0000006C 8A04                    		mov al,[si] ;mov array element into al for checking transparency/delimiters
    64 0000006E 3CFF                    		cmp al,255 ;transparent
    65 00000070 742F                    		je printskip5
    66 00000072 3CFE                    		cmp al,254 ;go to next row
    67 00000074 7528                    		jne printskip 
    68 00000076 89F8                    			mov ax,di                              
    69 00000078 BB4001                  			mov bx,320
    70 0000007B 31D2                    			xor dx,dx 
    71 0000007D F7F3                    			div bx
    72 0000007F 52                      			push dx
    73 00000080 31D2                    			xor dx,dx
    74 00000082 89F8                    			mov ax,di
    75 00000084 2B46FE                  			sub ax,[bp-2]
    76 00000087 F7F3                    			div bx
    77 00000089 5B                      			pop bx
    78 0000008A 39D3                    			cmp bx,dx
    79 0000008C 7704                    			ja printskip3
    80 0000008E 81C74001                			add di,320
    81                                  			printskip3:
    82 00000092 81C74001                			add di,320
    83 00000096 2B7EFE                  			sub di,[bp-2]
    84 00000099 83C601                  			add si,1
    85 0000009C EB1B                    			jmp printskip2
    86                                  		printskip:
    87 0000009E A4                      				movsb
    88 0000009F EB06                    				jmp printskip4
    89                                  			printskip5:
    90 000000A1 83C701                  			add di,1
    91 000000A4 83C601                  			add si,1
    92                                  				printskip4:
    93 000000A7 89F8                    				mov ax,di
    94 000000A9 BB4001                  				mov bx,320
    95 000000AC 31D2                    				xor dx,dx
    96 000000AE F7F3                    				div bx
    97 000000B0 83FA00                  				cmp dx,0
    98 000000B3 7504                    				jne printskip2
    99 000000B5 81EF4001                				sub di,320
   100                                  				printskip2:
   101 000000B9 83E901                  				sub cx,1
   102 000000BC 83F900                  				cmp cx,0
   103 000000BF 7406                    				jz printending
   104 000000C1 81FF00FA                				cmp di,64000
   105 000000C5 75A5                    				jne printloop
   106                                  	printending:
   107 000000C7 07                      	pop es
   108 000000C8 5E                      	pop si
   109 000000C9 5F                      	pop di
   110 000000CA 5A                      	pop dx
   111 000000CB 59                      	pop cx
   112 000000CC 5B                      	pop bx
   113 000000CD 58                      	pop ax
   114 000000CE 83C402                  	add sp,2
   115 000000D1 5D                      	pop bp
   116 000000D2 C20800                  ret 8
   117                                  
   118                                  delay:
   119 000000D5 51                      	push cx
   120 000000D6 53                      	push bx
   121 000000D7 BB0F00                  	mov bx,0x000F
   122                                  	delayloop:
   123 000000DA B9FFFF                  	mov cx,0xFFFF
   124                                  	delayloop1:
   125 000000DD E2FE                    				loop delayloop1
   126 000000DF 83EB01                  				sub bx,1
   127 000000E2 75F6                    				jnz delayloop
   128 000000E4 5B                      	pop bx
   129 000000E5 59                      	pop cx
   130 000000E6 C3                      	ret
   131                                  ;------------------------------------------------------------------------------------------------------------------------------------------------------------------------------------------------
   132 000000E7 0000                    roadposx:dw 0
   133 000000E9 6400                    roadposy:dw 100
   134                                  printroad:
   135 000000EB 50                      		push ax
   136 000000EC 53                      		push bx
   137 000000ED 51                      		push cx
   138 000000EE 52                      		push dx
   139 000000EF B90700                  		mov cx,7
   140 000000F2 A1[E700]                		mov ax,[roadposx]
   141                                  		roadloop:
   142 000000F5 FF36[5962]              		    push word [roadsize]
   143 000000F9 FF36[E900]              			push word [roadposy]
   144 000000FD 50                      			push word ax
   145 000000FE 68[4A5C]                			push road
   146 00000101 E8FFFE                  			call print
   147 00000104 83C02E                  			add ax,46
   148 00000107 BB4001                  			mov bx,320
   149 0000010A 31D2                    			xor dx,dx
   150 0000010C F7F3                    			div bx
   151 0000010E 89D0                    			mov ax,dx
   152 00000110 E2E3                    		loop roadloop
   153 00000112 5A                      		pop dx
   154 00000113 59                      		pop cx
   155 00000114 5B                      		pop bx
   156 00000115 58                      		pop ax
   157 00000116 C3                      		ret
   158                                  ;------------------------------------------------------------------------------------------------------------------------------------------------------------------------------------------------		
   159 00000117 0000                    fenceposx:dw 0
   160 00000119 4900                    fenceposy:dw 73
   161                                  printfence:
   162 0000011B 50                      			push ax
   163 0000011C 53                      		push bx
   164 0000011D 51                      		push cx
   165 0000011E 52                      		push dx
   166 0000011F B90A00                  		mov cx,10
   167 00000122 A1[1701]                		mov ax,[fenceposx]
   168                                  		fenceloop:
   169 00000125 FF36[5A66]              		    push word [fencesize]
   170 00000129 FF36[1901]              			push word [fenceposy]
   171 0000012D 50                      			push word ax
   172 0000012E 68[5B62]                			push fence
   173 00000131 E8CFFE                  			call print
   174 00000134 83C020                  			add ax,32
   175 00000137 BB4001                  			mov bx,320
   176 0000013A 31D2                    			xor dx,dx
   177 0000013C F7F3                    			div bx
   178 0000013E 89D0                    			mov ax,dx
   179 00000140 E2E3                    		loop fenceloop
   180 00000142 5A                      		pop dx
   181 00000143 59                      		pop cx
   182 00000144 5B                      		pop bx
   183 00000145 58                      		pop ax
   184 00000146 C3                      		ret
   185                                  ;------------------------------------------------------------------------------------------------------------------------------------------------------------------------------------------------		
   186 00000147 0000                    mountainposx:dw 0
   187 00000149 1400                    mountainposy:dw 20
   188                                  printmountain:
   189 0000014B 50                      			  push ax
   190 0000014C A1[4701]                			  mov ax,[mountainposx]
   191 0000014F FF36[9E8D]              			  push word [mountainsize]
   192 00000153 FF36[4901]              			  push word [mountainposy]
   193 00000157 50                      			  push word ax
   194 00000158 68[5C66]                			  push mountain
   195 0000015B E8A5FE                  			  call print
   196 0000015E 059600                  			  add ax,150
   197 00000161 FF36[9E8D]              			  push word [mountainsize]
   198 00000165 FF36[4901]              			  push word [mountainposy]
   199 00000169 50                      			  push word ax
   200 0000016A 68[5C66]                			  push mountain
   201 0000016D E893FE                  			  call print
   202 00000170 58                      			  pop ax
   203 00000171 C3                      			  ret
   204                                  ;------------------------------------------------------------------------------------------------------------------------------------------------------------------------------------------------					  
   205 00000172 FF00                    horseposx:dw 255
   206 00000174 4600                    horseposy:dw 70
   207 00000176 0000                    horseframe:dw 0
   208 00000178 0200                    horseinterval:dw 2
   209 0000017A 0200                    horseframerate:dw 2
   210                                  printhorse:
   211 0000017C FF36[1604]              			push word [horsesize]
   212 00000180 FF36[7401]              			push word [horseposy]
   213 00000184 FF36[7201]              			push word [horseposx]
   214 00000188 833E[7601]00            			cmp word [horseframe],0
   215 0000018D 7503                    			jne horseskip
   216 0000018F 68[1804]                			push horse1
   217                                  			horseskip:
   218 00000192 833E[7601]01            			cmp word [horseframe],1
   219 00000197 7503                    			jne horseskip2
   220 00000199 68[CB12]                			push horse2
   221                                  			horseskip2:
   222 0000019C 833E[7601]02            			cmp word [horseframe],2
   223 000001A1 7503                    			jne horseskip3
   224 000001A3 68[7E21]                			push horse3
   225                                  			horseskip3:
   226 000001A6 833E[7601]03            			cmp word [horseframe],3
   227 000001AB 7503                    			jne horseskip4
   228 000001AD 68[3130]                			push horse4
   229                                  			horseskip4:
   230 000001B0 833E[7601]04            			cmp word [horseframe],4
   231 000001B5 7503                    			jne horseskip5
   232 000001B7 68[E43E]                			push horse5
   233                                  			horseskip5:
   234 000001BA 833E[7601]05            			cmp word [horseframe],5
   235 000001BF 7503                    			jne horseskip6
   236 000001C1 68[974D]                			push horse6
   237                                  			horseskip6:
   238 000001C4 E83CFE                  			call print
   239 000001C7 C3                      			ret
   240                                  ;------------------------------------------------------------------------------------------------------------------------------------------------------------------------------------------------					  			
   241 000001C8 0000                    treelineposx:dw 0
   242 000001CA 2F00                    treelineposy:dw 47
   243                                  ;we get an offset of how much distance the trees must have on x axis
   244                                  ;offset can be animated to give parallax
   245                                  printtrees:
   246 000001CC 55                      			push bp
   247 000001CD 89E5                    			mov bp,sp
   248 000001CF 50                      			push ax
   249 000001D0 53                      			push bx
   250 000001D1 51                      			push cx
   251 000001D2 B90400                  			mov cx,4
   252 000001D5 A1[C801]                			mov ax,[treelineposx]
   253 000001D8 8B1E[CA01]              			mov bx,[treelineposy]
   254                                  			printtreeloop:
   255 000001DC FF36[01B7]              			push word [treesize]
   256 000001E0 53                      			push bx
   257 000001E1 50                      			push ax
   258 000001E2 68[A08D]                			push treeline
   259 000001E5 E81BFE                  			call print
   260 000001E8 83C308                  			add bx,8
   261 000001EB 034604                  			add ax,[bp+4]
   262                                  			
   263 000001EE 51                      			push cx
   264 000001EF B94001                  			mov cx,320
   265 000001F2 31D2                    			xor dx,dx
   266 000001F4 F7F1                    			div cx
   267 000001F6 89D0                    			mov ax,dx
   268 000001F8 59                      			pop cx
   269                                  			
   270 000001F9 83E901                  			sub cx,1
   271 000001FC 75DE                    			jnz printtreeloop
   272 000001FE 59                      			pop cx
   273 000001FF 5B                      			pop bx
   274 00000200 58                      			pop ax
   275 00000201 5D                      			pop bp
   276 00000202 C20200                  			ret 2
   277                                  ;------------------------------------------------------------------------------------------------------------------------------------------------------------------------------------------------					  			
   278 00000205 0F00                    sunposx:dw 15
   279 00000207 0700                    sunposy:dw 7
   280                                  printsun:
   281 00000209 FF36[19DF]              		push word[sunsize]
   282 0000020D FF36[0702]              		push word[sunposy]
   283 00000211 FF36[0502]              		push word[sunposx]
   284 00000215 68[C1DC]                		push sun
   285 00000218 E8E8FD                  		call print
   286 0000021B C3                      		ret
   287                                  ;------------------------------------------------------------------------------------------------------------------------------------------------------------------------------------------------					  			
   288 0000021C 0000                    skyposx:dw 0
   289 0000021E 0000                    skyposy:dw 0
   290                                  printsky:
   291 00000220 50                      		push ax
   292 00000221 FF36[BFDC]              		push word[skysize]
   293 00000225 FF36[1E02]              		push word[skyposy]
   294 00000229 FF36[1C02]              		push word[skyposx]
   295 0000022D 68[03B7]                		push sky
   296 00000230 E8D0FD                  		call print
   297 00000233 A1[1C02]                		mov ax,[skyposx]
   298 00000236 05A000                  		add ax,160
   299 00000239 FF36[BFDC]              		push word[skysize]
   300 0000023D FF36[1E02]              		push word[skyposy]
   301 00000241 50                      		push ax
   302 00000242 68[03B7]                		push sky
   303 00000245 E8BBFD                  		call print
   304 00000248 58                      		pop ax
   305 00000249 C3                      		ret
   306                                  
   307                                  ;------------------------------------------------------------------------------------------------------------------------------------------------------------------------------------------------					  			
   308 0000024A 1400                    carposx: dw 20
   309 0000024C 5A00                    carposy: dw 90
   310                                  printcar:
   311 0000024E FF36[EDEA]              		push word[carsize]
   312 00000252 FF36[4C02]              		push word[carposy]
   313 00000256 FF36[4A02]              		push word[carposx]
   314 0000025A 68[1BDF]                		push car
   315 0000025D E8A3FD                  		call print
   316 00000260 C3                      		ret
   317                                  ;------------------------------------------------------------------------------------------------------------------------------------------------------------------------------------------------					  			
   318 00000261 8300                    bottomstartrow:dw 131
   319                                  printbottom:
   320 00000263 50                      			push ax
   321 00000264 51                      			push cx
   322 00000265 52                      			push dx
   323 00000266 57                      			push di
   324 00000267 56                      			push si
   325 00000268 06                      			push es
   326 00000269 A1[1404]                			mov ax,[buffer]
   327 0000026C 8EC0                    			mov es,ax
   328 0000026E A1[6102]                			mov ax,[bottomstartrow]
   329 00000271 31D2                    			xor dx,dx
   330 00000273 B94001                  			mov cx,320
   331 00000276 F7E1                    			mul cx
   332 00000278 89C7                    			mov di,ax
   333                                  			bottomloop:
   334 0000027A 26C6050B                					  mov byte[es:di],0x0B
   335 0000027E 47                      					  inc di
   336 0000027F 81FF00FA                					  cmp di,64000
   337 00000283 75F5                    					  jne bottomloop
   338 00000285 07                      			pop es
   339 00000286 5E                      			pop si
   340 00000287 5F                      			pop di
   341 00000288 5A                      			pop dx
   342 00000289 59                      			pop cx
   343 0000028A 58                      			pop ax
   344 0000028B C3                      			ret
   345                                  ;------------------------------------------------------------------------------------------------------------------------------------------------------------------------------------------------					  			
   346 0000028C 9600                    carrotposx:dw 150
   347 0000028E 6400                    carrotposy:dw 100
   348                                  printcarrot:
   349 00000290 FF36[13F0]              			push word[carrotsize]
   350 00000294 FF36[8E02]              			push word[carrotposy]
   351 00000298 FF36[8C02]              			push word[carrotposx]
   352 0000029C 68[9BEF]                			push carrot
   353 0000029F E861FD                  			call print
   354 000002A2 C3                      			ret
   355                                  printscorecarrot:
   356 000002A3 FF36[13F0]              			push word[carrotsize]
   357 000002A7 688700                  			push word 135
   358 000002AA 682201                  			push word 290
   359 000002AD 68[9BEF]                			push carrot
   360 000002B0 E850FD                  			call print
   361 000002B3 C3                      			ret
   362                                  			
   363                                  ;------------------------------------------------------------------------------------------------------------------------------------------------------------------------------------------------					  			
   364 000002B4 9600                    rabbitposx: dw 150
   365 000002B6 B400                    rabbitposy: dw 180
   366 000002B8 9900                    rabbitjumpheight: dw 153
   367 000002BA 00                      rabbitstate: db 0 ;rabbitstate is used to check current state of rabbit
   368                                  				 ;0=rabbit can jump (not jumping,falling or scrolling down), this is the only state where interrupt can do anything
   369                                  				 ;1=rabbit is jumping
   370                                  				 ;2=bottom is scrolling down
   371                                  				 ;3=rabbit is falling (dying).
   372                                  printrabbit:
   373 000002BB FF36[89EF]              			push word[rabbitsize]
   374 000002BF FF36[B602]              			push word[rabbitposy]
   375 000002C3 FF36[B402]              			push word[rabbitposx]
   376 000002C7 803E[BA02]03            			cmp byte[rabbitstate],3
   377 000002CC 7D05                    			jge printrabbitskip
   378 000002CE 68[EFEA]                			push rabbit1
   379 000002D1 EB03                    			jmp printrabbitend
   380                                  			printrabbitskip:
   381 000002D3 68[3CED]                			push rabbit2
   382                                  			printrabbitend:
   383 000002D6 E82AFD                  			call print
   384 000002D9 C3                      			ret
   385                                  ;------------------------------------------------------------------------------------------------------------------------------------------------------------------------------------------------					  			
   386                                  ;this function is used to swap the bricks with
   387                                  ;eachother so the globalbrickpos returns to its original position
   388                                  ;and all the bricks swap places
   389                                  ;This is only called once whenever the platforms come down
   390                                  resetbricks:
   391 000002DA 50                      			push ax
   392 000002DB 53                      			push bx
   393 000002DC 51                      			push cx
   394 000002DD 52                      			push dx
   395 000002DE C706[7703]7400          			mov word [globalbrickpos],116
   396 000002E4 A1[8103]                			mov ax,[brick3xpos]
   397 000002E7 8A1E[8703]              			mov bl,[brick3dir]
   398 000002EB 8A3E[8B03]              			mov bh,[brick3col]
   399 000002EF A3[8303]                			mov [brick4xpos],ax
   400 000002F2 881E[8803]              			mov [brick4dir],bl
   401 000002F6 883E[8C03]              			mov [brick4col],bh
   402 000002FA C606[8D03]00            			mov byte[iscurrbrickblue],0
   403 000002FF 80FF37                  			cmp bh,0x37
   404 00000302 750B                    			jne rbbcs
   405 00000304 C606[8D03]01            			mov byte[iscurrbrickblue],1
   406 00000309 C706[8E03]0000          			mov word[bluebricktimer],0
   407                                  			rbbcs:
   408 0000030F A1[7F03]                			mov ax,[brick2xpos]
   409 00000312 8A1E[8603]              			mov bl,[brick2dir]
   410 00000316 8A3E[8A03]              			mov bh,[brick2col]
   411 0000031A A3[8103]                			mov [brick3xpos],ax
   412 0000031D 881E[8703]              			mov [brick3dir],bl
   413 00000321 883E[8B03]              			mov [brick3col],bh
   414                                  			
   415 00000325 A1[7D03]                			mov ax,[brick1xpos]
   416 00000328 8A1E[8503]              			mov bl,[brick1dir]
   417 0000032C 8A3E[8903]              			mov bh,[brick1col]
   418 00000330 A3[7F03]                			mov [brick2xpos],ax
   419 00000333 881E[8603]              			mov [brick2dir],bl
   420 00000337 883E[8A03]              			mov [brick2col],bh
   421                                  			
   422                                  			;newbricks are spawned at random value between globalleft and globalright borders
   423                                  			;rdstc is also used to check if brick should be blue,
   424                                  			;if random value is multiple of 5 then brick is blue else not
   425 0000033B 0F31                    			rdtsc ;gives a random number in ax register
   426 0000033D 50                      			push ax
   427 0000033E 8B0E[7B03]              			mov cx,[globalrightborder]
   428 00000342 31D2                    			xor dx,dx
   429 00000344 2B0E[7903]              			sub cx,[globalleftborder]
   430 00000348 41                      			inc cx
   431 00000349 F7F1                    			div cx
   432 0000034B 0316[7903]              			add dx,[globalleftborder]
   433 0000034F 8916[7D03]              			mov word[brick1xpos],dx
   434 00000353 58                      			pop ax
   435 00000354 C1E807                  			shr ax,7
   436 00000357 A2[8503]                			mov byte[brick1dir],al
   437 0000035A 0F31                    			rdtsc
   438 0000035C C606[8903]0E            			mov byte[brick1col],0x0E
   439 00000361 B90600                  			mov cx,6
   440 00000364 31D2                    			xor dx,dx
   441 00000366 F7F1                    			div cx
   442 00000368 83FA05                  			cmp dx,5
   443 0000036B 7505                    			jne resetbrickend
   444 0000036D C606[8903]37            			mov byte[brick1col],0x37
   445                                  			resetbrickend:
   446 00000372 5A                      			pop dx
   447 00000373 59                      			pop cx
   448 00000374 5B                      			pop bx
   449 00000375 58                      			pop ax
   450 00000376 C3                      			ret
   451                                  ;------------------------------------------------------------------------------------------------------------------------------------------------------------------------------------------------					  			
   452 00000377 7400                    globalbrickpos:dw 116
   453 00000379 5500                    globalleftborder:dw 85
   454 0000037B B900                    globalrightborder:dw 185
   455 0000037D 5500                    brick1xpos:dw 85
   456 0000037F B900                    brick2xpos:dw 185
   457 00000381 5500                    brick3xpos:dw 85
   458 00000383 8700                    brick4xpos:dw 135
   459                                  
   460                                  
   461 00000385 01                      brick1dir:db 1 ;0 means left,1 means right
   462 00000386 00                      brick2dir:db 0 
   463 00000387 01                      brick3dir:db 1 
   464 00000388 00                      brick4dir:db 0 
   465                                  
   466 00000389 0E                      brick1col:db 0x0E
   467 0000038A 4F                      brick2col:db 0x4F
   468 0000038B 5A                      brick3col:db 0x5A
   469 0000038C 0E                      brick4col:db 0x0E
   470                                  
   471 0000038D 00                      iscurrbrickblue:db 0
   472 0000038E 0000                    bluebricktimer:dw 0
   473 00000390 0000                    bluebricktimer2:dw 0
   474 00000392 0000                    bluebricktimer3:dw 0
   475 00000394 0000                    bluebricktimer4:dw 0
   476                                  ;bp+4 has location, bp+6 has color
   477                                  brickprintloop:
   478 00000396 55                      				push bp
   479 00000397 89E5                    				mov bp,sp
   480 00000399 53                      				push bx
   481 0000039A 51                      				push cx
   482 0000039B 52                      				push dx
   483 0000039C 57                      				push di
   484 0000039D 06                      				push es
   485 0000039E 8B1E[1404]              				mov bx,[buffer]
   486 000003A2 8EC3                    				mov es,bx
   487 000003A4 8B7E04                  				mov di,[bp+4]
   488 000003A7 BB0500                  				mov bx,5
   489 000003AA 8A7606                  				mov dh,[bp+6]
   490                                  				brickl1:
   491 000003AD B93C00                  						mov cx,60
   492                                  						brickl2:	
   493 000003B0 268835                  								mov [es:di],dh
   494 000003B3 83C701                  								add di,1
   495 000003B6 E2F8                    								loop brickl2
   496 000003B8 81C74001                						add di,320
   497 000003BC 83EF3C                  						sub di,60
   498 000003BF 83EB01                  						sub bx,1
   499 000003C2 75E9                    						jnz brickl1
   500 000003C4 07                      				pop es
   501 000003C5 5F                      				pop di
   502 000003C6 5A                      				pop dx
   503 000003C7 59                      				pop cx
   504 000003C8 5B                      				pop bx
   505 000003C9 5D                      				pop bp
   506 000003CA C20400                  				ret 4
   507                                  printbricks:
   508 000003CD 50                      			push ax
   509 000003CE 53                      			push bx
   510 000003CF 51                      			push cx
   511 000003D0 52                      			push dx
   512 000003D1 57                      			push di
   513 000003D2 56                      			push si
   514 000003D3 06                      			push es
   515                                  			
   516 000003D4 A1[7703]                			mov ax,[globalbrickpos]
   517 000003D7 31D2                    			xor dx,dx
   518 000003D9 B94001                  			mov cx,320
   519 000003DC F7E1                    			mul cx
   520 000003DE 0306[7D03]              			add ax,[brick1xpos]
   521 000003E2 FF36[8903]              			push word[brick1col]
   522 000003E6 50                      			push ax
   523 000003E7 E8ACFF                  			call brickprintloop
   524                                  			
   525 000003EA A1[7703]                			mov ax,[globalbrickpos]
   526 000003ED 83C01B                  			add ax,27
   527 000003F0 31D2                    			xor dx,dx
   528 000003F2 B94001                  			mov cx,320
   529 000003F5 F7E1                    			mul cx
   530 000003F7 0306[7F03]              			add ax,[brick2xpos]
   531 000003FB FF36[8A03]              			push word[brick2col]
   532 000003FF 50                      			push ax
   533 00000400 E893FF                  			call brickprintloop
   534                                  			
   535 00000403 A1[7703]                			mov ax,[globalbrickpos]
   536 00000406 83C036                  			add ax,54
   537 00000409 31D2                    			xor dx,dx
   538 0000040B B94001                  			mov cx,320
   539 0000040E F7E1                    			mul cx
   540 00000410 0306[8103]              			add ax,[brick3xpos]
   541 00000414 FF36[8B03]              			push word[brick3col]
   542 00000418 50                      			push ax
   543 00000419 E87AFF                  			call brickprintloop
   544                                  			
   545 0000041C A1[7703]                			mov ax,[globalbrickpos]
   546 0000041F 83C051                  			add ax,81
   547 00000422 31D2                    			xor dx,dx
   548 00000424 B94001                  			mov cx,320
   549 00000427 F7E1                    			mul cx
   550 00000429 0306[8303]              			add ax,[brick4xpos]
   551 0000042D FF36[8C03]              			push word[brick4col]
   552 00000431 50                      			push ax
   553 00000432 E861FF                  			call brickprintloop
   554                                  			
   555 00000435 07                      			pop es
   556 00000436 5E                      			pop si
   557 00000437 5F                      			pop di
   558 00000438 5A                      			pop dx
   559 00000439 59                      			pop cx
   560 0000043A 5B                      			pop bx
   561 0000043B 58                      			pop ax
   562 0000043C C3                      			ret
   563                                  ;------------------------------------------------------------------------------------------------------------------------------------------------------------------------------------------------					  			
   564                                  checkrabbitcollision:
   565 0000043D 50                      					push ax
   566 0000043E 53                      					push bx
   567 0000043F 51                      					push cx
   568 00000440 52                      					push dx
   569 00000441 A1[B402]                					mov ax,[rabbitposx]
   570 00000444 8B1E[8103]              					mov bx,[brick3xpos]
   571 00000448 89D9                    					mov cx,bx
   572 0000044A 83C13D                  					add cx,61
   573 0000044D 83EB18                  					sub bx,24
   574 00000450 39D8                    					cmp ax,bx
   575 00000452 7C06                    					jl collisionfail
   576 00000454 39C8                    					cmp ax,cx
   577 00000456 7F02                    					jg collisionfail
   578 00000458 EB05                    					jmp collisionsuccess
   579                                  					collisionfail:
   580 0000045A C606[BA02]03            					mov byte[rabbitstate],3
   581                                  					collisionsuccess:
   582 0000045F 5A                      					pop dx
   583 00000460 59                      					pop cx
   584 00000461 5B                      					pop bx
   585 00000462 58                      					pop ax
   586 00000463 C3                      					ret
   587                                  ;------------------------------------------------------------------------------------------------------------------------------------------------------------------------------------------------					  			
   588                                  ;if carrot is collected we move it back up and increment score
   589                                  checkcarrotcollision:
   590 00000464 50                      					push ax
   591 00000465 53                      					push bx
   592 00000466 51                      					push cx
   593 00000467 52                      					push dx
   594 00000468 A1[B602]                					mov ax,[rabbitposy]
   595 0000046B 8B1E[8E02]              					mov bx,[carrotposy]
   596 0000046F 29D8                    					sub ax,bx
   597 00000471 7902                    					jns checkcarrotskip
   598 00000473 F7D8                    					neg ax
   599                                  					checkcarrotskip:
   600 00000475 83F805                  					cmp ax,5
   601 00000478 7F27                    					jg carrotcollisionend
   602 0000047A A1[B402]                					mov ax,[rabbitposx]
   603 0000047D 8B1E[8C02]              					mov bx,[carrotposx]
   604 00000481 89D9                    					mov cx,bx
   605 00000483 83C30B                  					add bx,11
   606 00000486 83E919                  					sub cx,25
   607 00000489 39C8                    					cmp ax,cx
   608 0000048B 7614                    					jbe carrotcollisionend
   609 0000048D 39D8                    					cmp ax,bx
   610 0000048F 7310                    					jae carrotcollisionend
   611                                  					
   612 00000491 8306[BC05]01            					add word[score],1
   613 00000496 A1[A604]                					mov ax,[carrotoriginalpos]
   614 00000499 A3[8E02]                					mov word[carrotposy],ax
   615 0000049C C606[A804]00            					mov byte[carrotlevel],0
   616                                  					carrotcollisionend:
   617 000004A1 5A                      					pop dx
   618 000004A2 59                      					pop cx
   619 000004A3 5B                      					pop bx
   620 000004A4 58                      					pop ax
   621 000004A5 C3                      					ret
   622                                  ;------------------------------------------------------------------------------------------------------------------------------------------------------------------------------------------------					  			
   623                                  ;bp+4 contains amount to move by, if the move would exceed screen bounds then we move carrot back to original position
   624 000004A6 0000                    carrotoriginalpos:dw 0
   625 000004A8 00                      carrotlevel:db 0
   626                                  movecarrot:
   627 000004A9 55                      			push bp
   628 000004AA 89E5                    			mov bp,sp
   629 000004AC 50                      			push ax
   630 000004AD 8B4604                  			mov ax,[bp+4]
   631 000004B0 0106[8E02]              			add word[carrotposy],ax
   632 000004B4 813E[8E02]C800          			cmp word[carrotposy],200
   633 000004BA 7C0B                    			jl movecarrotskip
   634 000004BC A1[A604]                			mov ax,[carrotoriginalpos]
   635 000004BF A3[8E02]                			mov word[carrotposy],ax
   636 000004C2 C606[A804]00            			mov byte[carrotlevel],0
   637                                  			movecarrotskip:
   638 000004C7 58                      			pop ax
   639 000004C8 5D                      			pop bp
   640 000004C9 C20200                  			ret 2
   641                                  ;------------------------------------------------------------------------------------------------------------------------------------------------------------------------------------------------					  			
   642                                  setcarrot:
   643 000004CC 50                      			push ax
   644 000004CD 52                      			push dx
   645 000004CE 51                      			push cx
   646 000004CF 31C0                    			xor ax,ax
   647 000004D1 A0[A804]                			mov al, byte[carrotlevel]
   648 000004D4 31D2                    			xor dx,dx
   649 000004D6 B91B00                  			mov cx,27
   650 000004D9 F7E1                    			mul cx
   651 000004DB 0306[A604]              			add ax,[carrotoriginalpos]
   652 000004DF A3[8E02]                			mov [carrotposy],ax
   653 000004E2 59                      			pop cx
   654 000004E3 5A                      			pop dx
   655 000004E4 58                      			pop ax
   656 000004E5 C3                      			ret
   657                                  ;------------------------------------------------------------------------------------------------------------------------------------------------------------------------------------------------					  			
   658                                  movebricks:
   659 000004E6 50                      			push ax
   660 000004E7 53                      			push bx
   661 000004E8 51                      			push cx
   662 000004E9 57                      			push di
   663 000004EA 56                      			push si
   664 000004EB BE[7D03]                			mov si,brick1xpos
   665 000004EE BF[8503]                			mov di,brick1dir
   666 000004F1 B90400                  			mov cx,4
   667                                  			movebrickloop:
   668 000004F4 8B04                    				mov ax,[si]
   669 000004F6 8A1D                    				mov bl,[di]
   670 000004F8 80FB00                  				cmp bl,0
   671 000004FB 7505                    				jne bs
   672 000004FD E83E00                  				call moveleft
   673 00000500 EB03                    				jmp bsskip
   674                                  				bs:
   675 00000502 E84800                  				call moveright
   676                                  				bsskip:
   677 00000505 8904                    				mov word[si],ax
   678 00000507 881D                    				mov byte[di],bl
   679 00000509 83C701                  				add di,1
   680 0000050C 83C602                  				add si,2
   681 0000050F E2E3                    			    loop movebrickloop
   682 00000511 8A1E[8803]              			mov bl,[brick4dir]
   683 00000515 803E[BA02]01            			cmp byte[rabbitstate],1
   684 0000051A 741C                    			je bsend
   685 0000051C 803E[BA02]02            			cmp byte[rabbitstate],2
   686 00000521 7504                    			jne bsskip2
   687 00000523 8A1E[8703]              			mov bl,[brick3dir]
   688                                  			bsskip2:
   689 00000527 80FB00                  			cmp bl,0
   690 0000052A 7407                    			je bsskip4	
   691 0000052C 8306[B402]01            			add word[rabbitposx],1
   692 00000531 EB05                    			jmp bsend
   693                                  			bsskip4:
   694 00000533 832E[B402]01            			sub word[rabbitposx],1
   695                                  			bsend:
   696 00000538 5E                      			pop si
   697 00000539 5F                      			pop di
   698 0000053A 59                      			pop cx
   699 0000053B 5B                      			pop bx
   700 0000053C 58                      			pop ax
   701 0000053D C3                      			ret
   702                                  moveleft:
   703 0000053E 83E801                  		sub ax,1
   704 00000541 3B06[7903]              		cmp word ax,[globalleftborder]
   705 00000545 7305                    		jae moveleftskip
   706 00000547 83C002                  		add ax,2
   707 0000054A B301                    		mov bl,1
   708                                  		moveleftskip:
   709 0000054C C3                      		ret
   710                                  moveright:
   711 0000054D 83C001                  		add ax,1
   712 00000550 3B06[7B03]              		cmp word ax,[globalrightborder]
   713 00000554 7605                    		jbe moverightskip
   714 00000556 83E802                  		sub ax,2
   715 00000559 B300                    		mov bl,0
   716                                  		moverightskip:
   717 0000055B C3                      		ret 
   718                                  ;------------------------------------------------------------------------------------------------------------------------------------------------------------------------------------------------					  			
   719 0000055C 0000                    treeanimatedoffset:dw 0
   720                                  printElements:
   721 0000055E 8306[5C05]01            			    add word[treeanimatedoffset],1
   722 00000563 FF36[5C05]              				push word[treeanimatedoffset]
   723 00000567 E81C00                  				call printbackground
   724 0000056A E8F6FC                  				call printbottom
   725 0000056D E85DFE                  				call printbricks
   726 00000570 E848FD                  				call printrabbit
   727 00000573 E81AFD                  				call printcarrot
   728 00000576 E8A2FB                  				call printfence
   729 00000579 E86FFB                  				call printroad
   730 0000057C E8CFFC                  				call printcar
   731 0000057F E8FAFB                  				call printhorse
   732 00000582 E81EFD                  				call printscorecarrot
   733 00000585 C3                      				ret
   734                                  			
   735                                  ;------------------------------------------------------------------------------------------------------------------------------------------------------------------------------------------------					  			
   736                                  printbackground:
   737 00000586 55                      			push bp
   738 00000587 89E5                    			mov bp,sp
   739 00000589 E894FC                  			call printsky
   740 0000058C E87AFC                  			call printsun
   741 0000058F E8B9FB                  			call printmountain
   742 00000592 FF7604                  			push word[bp+4]
   743 00000595 E834FC                  		    call printtrees
   744 00000598 5D                      			pop bp
   745 00000599 C20200                  			ret 2
   746                                  ;------------------------------------------------------------------------------------------------------------------------------------------------------------------------------------------------					  			
   747                                  converttostring:
   748 0000059C 60                      				pusha
   749 0000059D BE[BE05]                				mov si,digits
   750 000005A0 83C601                  				add si,1
   751 000005A3 B90200                  				mov cx,2
   752 000005A6 A1[BC05]                				mov ax,[score]
   753                                  				convertloop:
   754 000005A9 31D2                    							xor dx,dx
   755 000005AB BB0A00                  							mov bx,10
   756 000005AE F7F3                    							div bx
   757 000005B0 80C230                  							add dl,'0'
   758 000005B3 8814                    							mov [si],dl
   759 000005B5 4E                      							dec si
   760 000005B6 E2F1                    							loop convertloop
   761 000005B8 61                      				popa
   762 000005B9 C3                      				ret
   763                                  ;------------------------------------------------------------------------------------------------------------------------------------------------------------------------------------------------					  			
   764 000005BA 26                      scoreposx:db 38
   765 000005BB 11                      scoreposy:db 17
   766 000005BC 0000                    score:dw 0
   767 000005BE 3030                    digits:db '00'
   768                                  printscore: 
   769 000005C0 60                      			pusha
   770 000005C1 E8D8FF                  			call converttostring
   771 000005C4 8CC8                    			mov ax,cs
   772 000005C6 8EC0                    			mov es,ax			
   773 000005C8 B413                    			mov ah,13h;service to print string in graphic mode
   774 000005CA B000                    			mov al,0;sub-service 0 all the characters will be in the same color(bl) and cursor position is not updated after the string is written
   775 000005CC B700                    			mov bh,0;page number=always zero
   776 000005CE B30F                    			mov bl,00001111b;color of the text (white foreground and black background)
   777 000005D0 B90200                  			mov cx,2;length of string
   778 000005D3 8A36[BB05]              			mov dh,[scoreposy];y coordinate
   779 000005D7 8A16[BA05]              			mov dl,[scoreposx];x coordinate
   780 000005DB BD[BE05]                			mov bp,digits;mov bp the offset of the string
   781 000005DE CD10                    			int 10h
   782 000005E0 61                      			popa
   783 000005E1 C3                      		    ret
   784                                  ;------------------------------------------------------------------------------------------------------------------------------------------------------------------------------------------------					  			
   785                                  animatebackground:
   786 000005E2 51                      				push cx
   787                                  				;set values for next loop
   788 000005E3 8306[E700]0A            				add word[roadposx],10
   789 000005E8 8306[1701]0A            				add word[fenceposx],10
   790 000005ED 8306[C801]02            				add word[treelineposx],2
   791 000005F2 832E[7801]01            				sub word[horseinterval],1 
   792 000005F7 751A                    				jnz backgroundskip0
   793 000005F9 8B0E[7A01]              				mov cx,[horseframerate]
   794 000005FD 890E[7801]              				mov word[horseinterval],cx
   795 00000601 8306[7601]01            				add word[horseframe],1
   796 00000606 833E[7601]06            				cmp word[horseframe],6
   797 0000060B 7506                    				jne backgroundskip0
   798 0000060D C706[7601]0000          				mov word[horseframe],0
   799                                  				backgroundskip0:
   800 00000613 813E[E700]4001          					cmp word[roadposx],320
   801 00000619 7506                    					jne backgroundskip
   802 0000061B C706[E700]0000          					mov word[roadposx],0
   803                                  				backgroundskip:
   804 00000621 813E[1701]4001          					cmp word[fenceposx],320
   805 00000627 7506                    					jne backgroundskip1
   806 00000629 C706[1701]0000          					mov word[fenceposx],0
   807                                  				backgroundskip1:
   808 0000062F 813E[C801]4001          					cmp word[treelineposx],320
   809 00000635 7506                    					jne backgroundskip2
   810 00000637 C706[C801]0000          					mov word[treelineposx],0
   811                                  				 backgroundskip2:
   812 0000063D 59                      				 pop cx
   813 0000063E C3                      				 ret
   814                                  ;------------------------------------------------------------------------------------------------------------------------------------------------------------------------------------------------					  			
   815                                  GameChecks:
   816 0000063F 60                      					pusha
   817 00000640 803E[BA02]04            					cmp byte[rabbitstate],4
   818 00000645 0F84B400                					je gamecheckend
   819 00000649 803E[BA02]03            					cmp byte[rabbitstate],3
   820 0000064E 746A                    					je dying
   821                                  					;rabbit is not dying or dead
   822 00000650 E893FE                  					call movebricks
   823 00000653 E80EFE                  					call checkcarrotcollision
   824 00000656 803E[BA02]00            					cmp byte[rabbitstate],0
   825 0000065B 7477                    					je bluebrickcheck
   826 0000065D 803E[BA02]01            					cmp byte[rabbitstate],1
   827 00000662 740A                    					je rabbitjump
   828 00000664 803E[BA02]02            					cmp byte[rabbitstate],2
   829 00000669 7420                    					je scrolldown
   830 0000066B E98F00                  					jmp gamecheckend
   831                                  					
   832                                  					rabbitjump:
   833 0000066E 832E[B602]05            								sub word[rabbitposy],5
   834 00000673 8B1E[B802]              								mov bx,[rabbitjumpheight]
   835 00000677 391E[B602]              								cmp word[rabbitposy],bx
   836 0000067B 770C                    								ja  rabbitjumpskip  ;dont change state unless posy>=jumpheight
   837                                  													;if rabbit reached height, check if x pos is within bounds of brick3
   838                                  													;if not, set rabbitstate to 3 (dead)
   839 0000067D 891E[B602]              									mov word[rabbitposy],bx
   840 00000681 C606[BA02]02            									mov byte[rabbitstate],2
   841 00000686 E8B4FD                  									call checkrabbitcollision
   842                                  									rabbitjumpskip:
   843 00000689 EB72                    								jmp gamecheckend
   844                                  					scrolldown:
   845 0000068B 8306[B602]05            								add word[rabbitposy],5
   846 00000690 6A05                    								push 5
   847 00000692 E814FE                  								call movecarrot
   848 00000695 8306[7703]05            								add word[globalbrickpos],5
   849 0000069A 813E[B602]B400          								cmp word[rabbitposy],180
   850 000006A0 7C16                    								jl scrolldownskip
   851 000006A2 C706[B602]B400          									 mov word[rabbitposy],180
   852 000006A8 C606[BA02]00            									 mov byte[rabbitstate],0
   853 000006AD 8006[A804]01            									 add byte[carrotlevel],1
   854 000006B2 E817FE                  									 call setcarrot
   855 000006B5 E822FC                  									 call resetbricks
   856 000006B8 EB43                    								scrolldownskip: jmp gamecheckend
   857                                  								
   858                                  					dying:
   859 000006BA 8306[B602]05            								add word[rabbitposy],5
   860 000006BF 813E[B602]B400          								cmp word[rabbitposy],180
   861 000006C5 7C0B                    								jl dyingskip
   862 000006C7 C706[B602]B400          									mov word[rabbitposy],180
   863 000006CD C606[BA02]04            									mov byte[rabbitstate],4
   864                                  								dyingskip:
   865 000006D2 EB29                    								jmp gamecheckend
   866                                  					bluebrickcheck:
   867 000006D4 803E[8D03]01            								cmp byte[iscurrbrickblue],1
   868 000006D9 7522                    								jne bluebrickcheckskip
   869 000006DB 833E[8E03]FF            								cmp word[bluebricktimer],0xFFFF
   870 000006E0 721B                    								jc bluebrickcheckskip
   871 000006E2 C606[8D03]00            									mov byte[iscurrbrickblue],0
   872 000006E7 C606[8C03]0B            									mov byte[brick4col],0x0B
   873 000006EC C706[8E03]0000          									mov word[bluebricktimer],0
   874 000006F2 C606[BA02]04            									mov byte[rabbitstate],4
   875 000006F7 C706[B602]B800          									mov word[rabbitposy],184
   876                                  								bluebrickcheckskip:
   877                                  					gamecheckend:
   878 000006FD 61                      					popa
   879 000006FE C3                      					ret
   880                                  
   881                                  ;------------------------------------------------------------------------------------------------------------------------------------------------------------------------------------------------					  			
   882                                  printbuffer:
   883 000006FF FA                      			cli
   884 00000700 06                      			push es
   885 00000701 57                      			push di
   886 00000702 1E                      			push ds
   887 00000703 56                      			push si
   888 00000704 51                      			push cx
   889 00000705 50                      			push ax
   890 00000706 52                      			push dx
   891                                  			
   892 00000707 A1[0E04]                			mov ax,[printmasky]
   893 0000070A B94001                  			mov cx,320
   894 0000070D 31D2                    			xor dx,dx
   895 0000070F F7E1                    			mul cx
   896 00000711 8B0E[1404]              			mov cx, [buffer]
   897 00000715 8ED9                    			mov ds, cx
   898 00000717 89C6                    			mov si,ax
   899 00000719 B900A0                  			mov cx, 0xA000
   900 0000071C 8EC1                    			mov es, cx
   901 0000071E 31FF                    			xor di, di
   902 00000720 01C7                    			add di,ax
   903 00000722 B900FA                  			mov cx, 64000
   904 00000725 29C1                    			sub cx,ax
   905 00000727 D1E9                    			shr cx,1
   906 00000729 F3A5                    			rep movsw
   907                                  			
   908 0000072B 5A                      			pop dx
   909 0000072C 58                      			pop ax
   910 0000072D 59                      			pop cx
   911 0000072E 5E                      			pop si
   912 0000072F 1F                      			pop ds
   913 00000730 5F                      			pop di
   914 00000731 07                      			pop es
   915 00000732 FB                      			sti
   916 00000733 C3                      			ret
   917                                  ;------------------------------------------------------------------------------------------------------------------------------------------------------------------------------------------------					  			
   918                                  soundtask:
   919                                  			;read sound data from file and store in sound_buffer segment
   920 00000734 FA                      			cli
   921 00000735 B43D                    			mov ah,3dh ; open file
   922 00000737 B000                    			mov al,0
   923 00000739 8D16[8DEF]              			lea dx,filename
   924 0000073D CD21                    			int 21h
   925 0000073F A3[99EF]                			mov [filehandle],ax
   926                                  			;read file and write bytes to 
   927 00000742 B43F                    			mov ah,3fh
   928 00000744 8B0E[97EF]              			mov cx,[sound_size]
   929 00000748 8B1E[99EF]              			mov bx,[filehandle]
   930 0000074C 8B16[1204]              			mov dx,[sound_buffer]
   931 00000750 8EDA                    			mov ds,dx
   932 00000752 31D2                    			xor dx,dx
   933 00000754 CD21                    			int 21h
   934                                  			;close file
   935 00000756 8CC8                    			mov ax,cs
   936 00000758 8ED8                    			mov ds,ax
   937 0000075A B43E                    			mov ah,3eh
   938 0000075C 8B1E[99EF]              			mov bx,[filehandle]
   939 00000760 CD21                    			int 21h
   940 00000762 FB                      			sti
   941                                  			;loop to play audio at specific intervals
   942 00000763 8B16[1204]              			mov dx,[sound_buffer]
   943 00000767 8EC2                    			mov es,dx
   944                                  			soundloop:	
   945                                  				;send DSP command 10h
   946 00000769 BA2C02                  				mov dx, 22ch
   947 0000076C B010                    				mov al,10h
   948 0000076E EE                      				out dx,al
   949                                  				;send byte audio sample
   950 0000076F 8B36[8BEF]              				mov si,[sound_index]
   951 00000773 268A04                  				mov al,[es:si]
   952 00000776 EE                      				out dx,al
   953 00000777 8306[8BEF]01            				add word[sound_index],1
   954 0000077C B97C15                  				  mov cx,5500
   955                                  				   sounddelay:
   956 0000077F E2FE                    				   loop sounddelay
   957 00000781 8B16[97EF]              				  mov dx,[sound_size]
   958 00000785 3916[8BEF]              				cmp word[sound_index],dx
   959 00000789 7506                    				jne soundskip
   960 0000078B C706[8BEF]0000          				mov word[sound_index],0
   961                                  				soundskip:
   962 00000791 EBD6                    			jmp soundloop
   963                                  ;------------------------------------------------------------------------------------------------------------------------------------------------------------------------------------------------					  			
   964 00000793 50                      kbisr:		push ax
   965 00000794 E460                    			in al, 0x60						; read a char from keyboard port, scancode
   966 00000796 3C48                    			cmp al, 0x48					; is the key up
   967 00000798 750C                    			jne nomatch						; leave interrupt routine 
   968 0000079A 803E[BA02]00            			cmp byte[rabbitstate],0
   969 0000079F 7505                    			jne nomatch
   970 000007A1 C606[BA02]01            			mov byte[rabbitstate],1
   971                                              
   972 000007A6 B020                    nomatch:	mov al, 0x20
   973 000007A8 E620                    			out 0x20, al					; send EOI to PIC
   974 000007AA 58                      			pop ax
   975 000007AB 2EFF2E[0604]            			jmp far[cs:keyboardinterrupt]
   976                                  ;------------------------------------------------------------------------------------------------------------------------------------------------------------------------------------------------					  			
   977                                  timer:		
   978                                  			;check if current brick is blue and if it is then increment both timers
   979 000007B0 803E[8D03]01            			cmp byte[iscurrbrickblue],1
   980 000007B5 751A                    			jne timerskip
   981 000007B7 833E[8E03]FF            			cmp word[bluebricktimer],0xFFFF
   982 000007BC 7413                    			je timerskip
   983 000007BE FF06[8E03]              			inc word[bluebricktimer]
   984 000007C2 813E[8E03]FFDF          			cmp word[bluebricktimer],0xDFFF
   985 000007C8 7207                    			jc timerskip
   986 000007CA C606[8C03]28            			mov byte[brick4col],0x28
   987 000007CF 7500                    			jne timerskip
   988                                  			timerskip:			
   989 000007D1 1E                      			push ds
   990 000007D2 53                      			push bx
   991 000007D3 0E                      			push cs
   992 000007D4 1F                      			pop ds ; initialize ds to data segment
   993 000007D5 8B1E[0004]              			mov bx, [currenttask] ; read index of current in bx
   994 000007D9 C1E305                  			shl bx,5 ; multiply by 32 for pcb start
   995 000007DC 8987[0000]              			mov [pcb+bx+0], ax ; save ax in current pcb
   996 000007E0 898F[0400]              			mov [pcb+bx+4], cx ; save cx in current pcb
   997 000007E4 8997[0600]              			mov [pcb+bx+6], dx ; save dx in current pcb
   998 000007E8 89B7[0800]              			mov [pcb+bx+8], si ; save si in current pcb
   999 000007EC 89BF[0A00]              			mov [pcb+bx+10], di ; save di in current pcb
  1000 000007F0 89AF[0C00]              			mov [pcb+bx+12], bp ; save bp in current pcb
  1001 000007F4 8C87[1800]              			mov [pcb+bx+24], es ; save es in current pcb
  1002 000007F8 58                      			pop ax ; read original bx from stack
  1003 000007F9 8987[0200]              			mov [pcb+bx+2], ax ; save bx in current pcb
  1004 000007FD 58                      			pop ax ; read original ds from stack
  1005 000007FE 8987[1400]              			mov [pcb+bx+20], ax ; save ds in current pcb
  1006 00000802 58                      			pop ax ; read original ip from stack
  1007 00000803 8987[1000]              			mov [pcb+bx+16], ax ; save ip in current pcb
  1008 00000807 58                      			pop ax ; read original cs from stack
  1009 00000808 8987[1200]              			mov [pcb+bx+18], ax ; save cs in current pcb
  1010 0000080C 58                      			pop ax ; read original flags from stack
  1011 0000080D 8987[1A00]              			mov [pcb+bx+26], ax ; save cs in current pcb
  1012 00000811 8C97[1600]              			mov [pcb+bx+22], ss ; save ss in current pcb
  1013 00000815 89A7[0E00]              			mov [pcb+bx+14], sp ; save sp in current pcb
  1014 00000819 8B9F[1C00]              			mov bx, [pcb+bx+28] ; read next pcb of this pcb
  1015 0000081D 891E[0004]              			mov [currenttask], bx ; update current to new pcb
  1016 00000821 B105                    			mov cl, 5
  1017 00000823 D3E3                    			shl bx, cl ; multiply by 32 for pcb start
  1018 00000825 8B8F[0400]              			mov cx, [pcb+bx+4] ; read cx of new process
  1019 00000829 8B97[0600]              			mov dx, [pcb+bx+6] ; read dx of new process
  1020 0000082D 8BB7[0800]              			mov si, [pcb+bx+8] ; read si of new process
  1021 00000831 8BBF[0A00]              			mov di, [pcb+bx+10] ; read diof new process
  1022 00000835 8BAF[0C00]              			mov bp, [pcb+bx+12] ; read bp of new process
  1023 00000839 8E87[1800]              			mov es, [pcb+bx+24] ; read es of new process
  1024 0000083D 8E97[1600]              			mov ss, [pcb+bx+22] ; read ss of new process
  1025 00000841 8BA7[0E00]              			mov sp, [pcb+bx+14] ; read sp of new process
  1026 00000845 FFB7[1A00]              			push word [pcb+bx+26] ; push flags of new process
  1027 00000849 FFB7[1200]              			push word [pcb+bx+18] ; push cs of new process
  1028 0000084D FFB7[1000]              			push word [pcb+bx+16] ; push ip of new process
  1029 00000851 FFB7[1400]              			push word [pcb+bx+20] ; push ds of new process
  1030 00000855 B020                    			mov al, 0x20
  1031 00000857 E620                    			out 0x20, al ; send EOI to PIC
  1032 00000859 8B87[0000]              			mov ax, [pcb+bx+0] ; read ax of new process
  1033 0000085D 8B9F[0200]              			mov bx, [pcb+bx+2] ; read bx of new process
  1034 00000861 1F                      			pop ds ; read ds of new process
  1035 00000862 CF                      			iret ; return to new process
  1036                                  ;------------------------------------------------------------------------------------------------------------------------------------------------------------------------------------------------					  			
  1037                                  start:
  1038 00000863 FA                      cli						; disable interrupts
  1039 00000864 C706[3000][3407]        		mov word[pcb+32+16],soundtask
  1040 0000086A 8C0E[3200]              		mov word[pcb+32+18],cs
  1041 0000086E C706[3A00]0002          		mov word[pcb+32+26],0x0200
  1042 00000874 C706[3C00]0000          		mov word[pcb+32+28],0
  1043                                  		
  1044 0000087A C706[1000][EE08]        		mov word[pcb+16],main
  1045 00000880 8C0E[1200]              		mov word[pcb+18],cs
  1046 00000884 C706[1A00]0002          		mov word[pcb+26],0x0200
  1047 0000088A C706[1C00]0100          		mov word[pcb+28],1
  1048                                  		
  1049 00000890 892E[2C00]              		mov word[pcb+32+12],bp
  1050 00000894 8926[2E00]              		mov word[pcb+32+14],sp
  1051 00000898 8C1E[3400]              		mov word[pcb+32+20],ds
  1052 0000089C C706[3600]0067          		mov word[pcb+32+22],0x6700 ;stack segment for 2nd task, 0x7000 is original stack
  1053                                  									;meaning it starts from 7000:FFFF
  1054                                  									;second stack then starts from 6700:FFFF and goes backwards
  1055 000008A2 8C06[3800]              		mov word[pcb+32+24],es
  1056 000008A6 C706[0004]0000          		mov word[currenttask],0
  1057 000008AC 31C0                    		xor ax, ax
  1058 000008AE 8EC0                    		mov es, ax					; es=0, point es to IVT base
  1059 000008B0 26A12400                		mov ax,[es:9*4]
  1060 000008B4 A3[0604]                		mov word[keyboardinterrupt],ax
  1061 000008B7 26A12600                		mov ax,[es:9*4+2]
  1062 000008BB A3[0804]                		mov word[keyboardinterrupt+2],ax
  1063 000008BE 26C7062400[9307]        		mov word [es:9*4], kbisr		; store offset at n*4....... csabc:kbisr	
  1064 000008C5 268C0E2600              		mov [es:9*4+2], cs			; store segment at n*4+2
  1065                                  		
  1066 000008CA 26A17000                		mov ax,[es:1ch*4]
  1067 000008CE A3[0A04]                		mov word [timerinterrupt],ax
  1068 000008D1 26A17200                		mov ax,[es:1ch*4+2]
  1069 000008D5 A3[0C04]                		mov word [timerinterrupt+2],ax
  1070 000008D8 26C7067000[B007]        		mov word[es:1ch*4],timer
  1071 000008DF 268C0E7200              		mov [es:1ch*4+2],cs
  1072                                  		
  1073 000008E4 B86400                  		mov ax, 100
  1074 000008E7 E640                    		out 0x40, al
  1075 000008E9 88E0                    		mov al, ah
  1076 000008EB E640                    		out 0x40, al
  1077                                  		
  1078                                  		
  1079                                  		
  1080                                  		
  1081 000008ED FB                      sti						; enable interrupts 
  1082                                  main:
  1083 000008EE 8B1E[1004]              mov bx,[stack_buffer]
  1084 000008F2 8ED3                    mov ss,bx
  1085 000008F4 B81300                  mov ax,13h
  1086 000008F7 CD10                    int 0x10
  1087 000008F9 A1[8E02]                mov ax,[carrotposy]
  1088 000008FC A3[A604]                mov word [carrotoriginalpos],ax
  1089 000008FF B83C00                  mov ax,60
  1090 00000902 8B0E[7A01]              mov cx,[horseframerate]; how many cycles until we switch to next horse image
  1091 00000906 890E[7801]              mov [horseinterval],cx
  1092 0000090A 50                      push ax
  1093 0000090B E878FC                  call printbackground
  1094 0000090E E8EEFD                  call printbuffer
  1095 00000911 C706[0E04]2F00          mov word [printmasky],47
  1096                                  
  1097                                  mainloop:
  1098 00000917 E844FC                  	call printElements
  1099 0000091A E8C5FC                  	call animatebackground
  1100 0000091D E81FFD                  	call GameChecks
  1101 00000920 E8DCFD                  	call printbuffer
  1102 00000923 E89AFC                  	call printscore
  1103 00000926 EBEF                    jmp mainloop
  1104                                  ;unhook all buffers to return control to system
  1105                                  
  1106                                  ending:
  1107 00000928 A1[0604]                mov ax,[keyboardinterrupt]
  1108 0000092B 26A32400                mov word [es:9*4],ax
  1109 0000092F A1[0804]                mov ax,[keyboardinterrupt+2]
  1110 00000932 26A32600                mov word [es:9*4+2],ax
  1111 00000936 A1[0A04]                mov ax,[timerinterrupt]
  1112 00000939 26A37000                mov word [es:1ch*4],ax
  1113 0000093D A1[0C04]                mov ax,[timerinterrupt+2]
  1114 00000940 26A37200                mov word [es:1ch*4+2],ax
  1115 00000944 B8004C                  mov ax,0x4c00
  1116 00000947 CD21                    int 0x21
  1117                                  section .data
  1118                                  ;	  ax,bx,cx,dx,di,si,bp,sp,ss,ds,es,ip,cs,flags
  1119 00000000 0000<rep 200h>          pcb: times 32*16 dw 0
  1120 00000400 0000                    currenttask:dw 0
  1121 00000402 0100                    nextpcb:dw 1
  1122 00000404 0000                    currentpcb:dw 0
  1123 00000406 00000000                keyboardinterrupt:dw 0,0
  1124 0000040A 00000000                timerinterrupt:dw 0,0
  1125 0000040E 0000                    printmasky:dw 0
  1126 00000410 0070                    stack_buffer: dw 0x7000
  1127 00000412 0080                    sound_buffer: dw 0x8000
  1128 00000414 0090                    buffer: dw 0x9000  ; buffer is stored near end of memory at 9000. 
  1129                                                ; No other data is stored there as 9FFF is end of memory
  1130                                  			  ; and 9000 gives us exactly 64k bytes for buffer
  1131                                  			  ; (with some padding)
  1132 00000416 B20E                    horsesize:dw 3762
  1133                                  
  1134 00000418 FFFFFFFFFFFFFFFFFF-     horse1:db 255,255,255,255,255,255,255,255,255,255,255,255,255,255,255,255,255,255,255,255,255,255,255,255,255,255,255,255,255,255,255,255,255,255,255,255,255,255,255,255,255,255,255,255,255,255,255,255,255,255,255,255,255,255,255,255,255,255,255,255,255,255,255,255,255,254,255,255,255,255,255,255,255,255,255,255,255,255,255,255,255,255,255,255,255,255,255,255,255,255,255,255,255,255,255,255,255,255,255,255,255,255,255,255,255,255,255,255,255,255,255,255,255,255,255,255,255,255,255,255,255,255,255,255,255,255,255,255,255,255,255,254,255,255,255,255,255,255,255,255,255,255,255,255,255,255,255,255,255,255,255,255,255,255,255,255,255,255,255,255,255,255,255,255,255,255,255,255,255,255,255,255,255,255,255,255,255,255,255,255,255,255,255,255,255,255,255,255,255,255,255,255,255,255,255,255,255,254,255,255,255,255,255,255,255,255,255,255,255,255,255,255,255,255,255,255,255,255,255,255,255,255,255,255,255,255,255,255,255,255,255,255,255,255,255,255,255,255,255,255,255,255,255,255,255,255,255,255,255,255,255,255,25...
  1134 00000421 FFFFFFFFFFFFFFFFFF-
  1134 0000042A FFFFFFFFFFFFFFFFFF-
  1134 00000433 FFFFFFFFFFFFFFFFFF-
  1134 0000043C FFFFFFFFFFFFFFFFFF-
  1134 00000445 FFFFFFFFFFFFFFFFFF-
  1134 0000044E FFFFFFFFFFFFFFFFFF-
  1134 00000457 FFFFFEFFFFFFFFFFFF-
  1134 00000460 FFFFFFFFFFFFFFFFFF-
  1134 00000469 FFFFFFFFFFFFFFFFFF-
  1134 00000472 FFFFFFFFFFFFFFFFFF-
  1134 0000047B FFFFFFFFFFFFFFFFFF-
  1134 00000484 FFFFFFFFFFFFFFFFFF-
  1134 0000048D FFFFFFFFFFFFFFFFFF-
  1134 00000496 FFFFFFFFFFFEFFFFFF-
  1134 0000049F FFFFFFFFFFFFFFFFFF-
  1134 000004A8 FFFFFFFFFFFFFFFFFF-
  1134 000004B1 FFFFFFFFFFFFFFFFFF-
  1134 000004BA FFFFFFFFFFFFFFFFFF-
  1134 000004C3 FFFFFFFFFFFFFFFFFF-
  1134 000004CC FFFFFFFFFFFFFFFFFF-
  1134 000004D5 FFFFFFFFFFFFFFFFFE-
  1134 000004DE FFFFFFFFFFFFFFFFFF-
  1134 000004E7 FFFFFFFFFFFFFFFFFF-
  1134 000004F0 FFFFFFFFFFFFFFFFFF-
  1134 000004F9 FFFFFFFFFFFFFFFFFF-
  1134 00000502 FFFFFFFFFFFFFFFFFF-
  1134 0000050B FFFFFFFFFFFFFFFFFF-
  1134 00000514 FFFFFFFFFFFFFFFFFF-
  1134 0000051D FFFFFEFFFFFFFFFFFF-
  1134 00000526 FFFFFFFFFFFFFFFFFF-
  1134 0000052F FFFFFFFFFFFFFFFFFF-
  1134 00000538 FFFFFFFFFFFFFFFFFF-
  1134 00000541 FFFFFFFFFFFFFFFFFF-
  1134 0000054A FFFFFFFFFFFFFFFFFF-
  1134 00000553 FFFFFFFFFFFFFFFFFF-
  1134 0000055C FFFFFFFFFFFEFFFFFF-
  1134 00000565 FFFFFFFFFFFFFFFFFF-
  1134 0000056E FFFFFFFFFFFFFFFFFF-
  1134 00000577 FFFFFFFFFFFFFFFFFF-
  1134 00000580 FFFFFFFFFFFFFFFFFF-
  1134 00000589 FFFFFFFFFFFFFFFFFF-
  1134 00000592 FFFFFFFFFFFFFFFFFF-
  1134 0000059B FFFFFFFFFFFFFFFFFE-
  1134 000005A4 FFFFFFFFFFFFFFFFFF-
  1134 000005AD FFFFFFFFFFFFFFFFFF-
  1134 000005B6 FFFFFFFFFFFFFFFFFF-
  1134 000005BF FFFFFFFFFFFFFFFFFF-
  1134 000005C8 FFFFFFFFFFFFFFFFFF-
  1134 000005D1 FFFFFFFFFFFFFFFFFF-
  1134 000005DA FFFFFFFFFFFFFFFFFF-
  1134 000005E3 FFFFFEFFFFFFFFFFFF-
  1134 000005EC FFFFFFFFFFFFFFFFFF-
  1134 000005F5 FFFFFFFFFFFFFFFFFF-
  1134 000005FE FFFFFFFFFFFFFFFFFF-
  1134 00000607 FFFFFFFFFFFFFFFFFF-
  1134 00000610 FFFFFFFFFFFFFFFFFF-
  1134 00000619 FFFFFFFFFFFFFFFFFF-
  1134 00000622 FFFFFFFFFFFEFFFFFF-
  1134 0000062B FFFFFFFFFFFFFFFFFF-
  1134 00000634 FFFFFFFFFFFFFFFFFF-
  1134 0000063D FFFFFFFFFFFFFFFFFF-
  1134 00000646 FFFFFFFFFFFFFFFFFF-
  1134 0000064F FFFFFFFFFFFFFFFFFF-
  1134 00000658 FFFFFFFFFFFFFFFFFF-
  1134 00000661 FFFFFFFFFFFFFFFFFE-
  1134 0000066A FFFFFFFFFFFFFFFFFF-
  1134 00000673 FFFFFFFFFFFFFFFFFF-
  1134 0000067C FFFFFFFFFFFFFFFFFF-
  1134 00000685 FFFFFFFFFFFFFFFFFF-
  1134 0000068E FFFFFFFFFFFFFFFFFF-
  1134 00000697 FFFFFFFFFFFFFFFFFF-
  1134 000006A0 FFFFFFFFFFFFFFFFFF-
  1134 000006A9 FFFFFEFFFFFFFFFFFF-
  1134 000006B2 FFFFFFFFFFFFFFFFFF-
  1134 000006BB FFFFFFFFFFFFFFFFFF-
  1134 000006C4 FFFFFFFFFFFFFFFFFF-
  1134 000006CD FFFFFFFFFFFFFFFFFF-
  1134 000006D6 FFFFFFFFFFFFFFFFFF-
  1134 000006DF FFFFFFFFFFFFFFFFFF-
  1134 000006E8 FFFFFFFFFFFEFFFFFF-
  1134 000006F1 FFFFFFFFFFFFFFFFFF-
  1134 000006FA FFFFFFFFFFFFFFFFFF-
  1134 00000703 FFFFFFFFFFFFFFFFFF-
  1134 0000070C FFB9B9BAFFFFFFFFFF-
  1134 00000715 FFFFFFFFFFFFFFFFFF-
  1134 0000071E FFFFFFFFFFFFFFFFFF-
  1134 00000727 FFFFFFFFFFFFFFFFFE-
  1134 00000730 FFFFFFFFFFFFFFFFFF-
  1134 00000739 FFFFFFFFFFFFFFFFFF-
  1134 00000742 FFFFFFFFFFFFFFFFFF-
  1134 0000074B FFFFFFB9B9B9D1D1BA-
  1134 00000754 FFFFFFFFFFFFFFFFFF-
  1134 0000075D FFFFFFFFFFFFFFFFFF-
  1134 00000766 FFFFFFFFFFFFFFFFFF-
  1134 0000076F FFFFFEFFFFFFFFFFFF-
  1134 00000778 FFFFFFFFFFFF2B2BFF-
  1134 00000781 FFFFFFFFFFFFFFFFFF-
  1134 0000078A FFFFFFFFFFFFB911D0-
  1134 00000793 D1D2D3FFFFFFFFFFFF-
  1134 0000079C FFFFFFFFFFFFFFFFFF-
  1134 000007A5 FFFFFFFFFFFFFFFFFF-
  1134 000007AE FFFFFFFFFFFEFFFFFF-
  1134 000007B7 FFFFFFFFFFFF2A2B42-
  1134 000007C0 435C432BFFFFFFFF2B-
  1134 000007C9 432BFFFFFFFFFFFFB9-
  1134 000007D2 B9B9BAEA9493FFFFFF-
  1134 000007DB FFFFFFFFFFFFFFFFFF-
  1134 000007E4 FFFFFFFFFFFFFFFFFF-
  1134 000007ED FFFFFFFFFFFFFFFFFE-
  1134 000007F6 FFFFFFFFFFFFFFFF42-
  1134 000007FF 434241424243432B42-
  1134 00000808 FF2B435C43FFFFFFFF-
  1134 00000811 FFFFBA8989A5937C94-
  1134 0000081A FFFFFFFFFFFFFFFFFF-
  1134 00000823 FFFFFF5BFFFFFFFFFF-
  1134 0000082C FFFFFFFFFFFFFFFFFF-
  1134 00000835 FFFFFEFFFFFFFFFFFF-
  1134 0000083E FFA341418AA2424242-
  1134 00000847 424343432B43432B42-
  1134 00000850 FFFFFFFFFFFF060642-
  1134 00000859 8AAB947C03FFFFFFFF-
  1134 00000862 FFFFFF5B5B5B42FFFF-
  1134 0000086B FFFFFFFFFFFFFFFFFF-
  1134 00000874 FFFFFFFFFFFEFFFFFF-
  1134 0000087D FFFFFF1919410C15A1-
  1134 00000886 A18942434243434343-
  1134 0000088F 43435C4343FFFF4343-
  1134 00000898 43438CA5937C03034C-
  1134 000008A1 FFFFFFFFFF5B5A42FF-
  1134 000008AA FFFFFFFFFFFFFFFFFF-
  1134 000008B3 FFFFFFFFFFFFFFFFFE-
  1134 000008BC FFFFFFFF1A1A191941-
  1134 000008C5 40A2A1EA7242424243-
  1134 000008CE 4343434343435C5C43-
  1134 000008D7 2B2B2BFFFFA8A79203-
  1134 000008E0 034C4C03FFFF5B5B42-
  1134 000008E9 FFFFFFFFFFFFFFFFFF-
  1134 000008F2 FFFFFFFFFFFFFFFFFF-
  1134 000008FB FFFFFEFFFFFF1919A2-
  1134 00000904 08EA15151513131371-
  1134 0000090D 064141434343434243-
  1134 00000916 43435C432BFF2B2BFF-
  1134 0000091F FF9103030303031D42-
  1134 00000928 4241FFE81414FFFFFF-
  1134 00000931 FFFFFF2A2B2B2B4343-
  1134 0000093A 43432BFFFFFEFFFF16-
  1134 00000943 1716EA1314EA131312-
  1134 0000094C E912121213EA064142-
  1134 00000955 434241424343434243-
  1134 0000095E 432BFFFF03037B0303-
  1134 00000967 031C41A21718171918-
  1134 00000970 A10816FFFF43434342-
  1134 00000979 424343434343432BFE-
  1134 00000982 FF1515EA1211121313-
  1134 0000098B 121212D11212121213-
  1134 00000994 EAA189424343434343-
  1134 0000099D 424243430671EA0393-
  1134 000009A6 AB9303641C19191A1A-
  1134 000009AF 1A1919191716894143-
  1134 000009B8 424242414243434343-
  1134 000009C1 4343FEFFFF12D1FFFF-
  1134 000009CA FFFFFFFFD1D1121212-
  1134 000009D3 1111121213EAEA4141-
  1134 000009DC 4243424241435C43A2-
  1134 000009E5 1C1C1819191A1D1D1B-
  1134 000009EE 191A19191919A30815-
  1134 000009F7 EA892B2B062A434343-
  1134 00000A00 4343424241FEFFFFFF-
  1134 00000A09 FFFFFFFFFFFFFFFFFF-
  1134 00000A12 FF1212121212121213-
  1134 00000A1B 14A1A2194242191A58-
  1134 00000A24 43431A1C071A1A1A41-
  1134 00000A2D 8B7342A21817171708-
  1134 00000A36 15EAEA14EA062BFFFF-
  1134 00000A3F FF434343432A4243FE-
  1134 00000A48 FFFFFFFFFFFFFFFFFF-
  1134 00000A51 FFFFFFFFFFFF121212-
  1134 00000A5A 121213EA1719191A1A-
  1134 00000A63 A3191A1A581A1A1919-
  1134 00000A6C 1919A218A28AA11615-
  1134 00000A75 161616EAEAEAEAEA89-
  1134 00000A7E 89FFFFFFFFFFFFFFFF-
  1134 00000A87 2B2BFEFFFFFFFFFFFF-
  1134 00000A90 FFFFFFFFFFFFFFFFFF-
  1134 00000A99 FF1212121213EA16A2-
  1134 00000AA2 191919A2A2A218A218-
  1134 00000AAB 1819191918171716EB-
  1134 00000AB4 EA14EA1515EAEAEAEA-
  1134 00000ABD EAE88989FFFFFFFFFF-
  1134 00000AC6 FFFFFFFFFFFEFFFFFF-
  1134 00000ACF FFFFFFFFFFFFFFFFFF-
  1134 00000AD8 FFFFFFFFFFFF121213-
  1134 00000AE1 14081819A2A2181817-
  1134 00000AEA 17080817A2A2A20816-
  1134 00000AF3 1615EAEA1414EAEAEA-
  1134 00000AFC EAEAEA15EAEAEAFFFF-
  1134 00000B05 FFFFFFFFFFFFFFFFFE-
  1134 00000B0E FFFFFFFFFFFFFFFFFF-
  1134 00000B17 FFFFFFFFFFFFFFFFFF-
  1134 00000B20 FF1213EA1517A2A217-
  1134 00000B29 080816151616161615-
  1134 00000B32 15151515EA14141314-
  1134 00000B3B 14EAEAEA14EAEAEAE8-
  1134 00000B44 E813FFFFFFFFFFFFFF-
  1134 00000B4D FFFFFEFFFFFFFFFFFF-
  1134 00000B56 FFFFFFFFFFFFFFFFFF-
  1134 00000B5F FFFFFFFF1213141416-
  1134 00000B68 081616161615151515-
  1134 00000B71 1515EAEAEA14131312-
  1134 00000B7A 1212131313EAEAEAEA-
  1134 00000B83 1414E9E912FFFFFFFF-
  1134 00000B8C FFFFFFFFFFFEFFFFFF-
  1134 00000B95 FFFFFFFFFFFFFFFFFF-
  1134 00000B9E FFFFFFFFFFFFFFFF13-
  1134 00000BA7 13131313EA15EAEAEA-
  1134 00000BB0 EAEAEAEA14EA1313E9-
  1134 00000BB9 12121212121212E9E8-
  1134 00000BC2 EAEAEA14E9D1D112FF-
  1134 00000BCB FFFFFFFFFFFFFFFFFE-
  1134 00000BD4 FFFFFFFFFFFFFFFFFF-
  1134 00000BDD FFFFFFFFFFFFFFFFFF-
  1134 00000BE6 FFFFFF13131313EAEA-
  1134 00000BEF EAEA13131313E91312-
  1134 00000BF8 121212121212D1D112-
  1134 00000C01 12121313EAEA131212-
  1134 00000C0A D112D1E9E912FFFFFF-
  1134 00000C13 FFFFFEFFFFFFFFFFFF-
  1134 00000C1C FFFFFFFFFFFFFFFFFF-
  1134 00000C25 FFFFFFFFFFFF131312-
  1134 00000C2E 13EAEAEA1312D11212-
  1134 00000C37 D112D1D1D1D1D1D0D1-
  1134 00000C40 1312111212D1131413-
  1134 00000C49 E81212D188D20889D0-
  1134 00000C52 FFFFFFFFFFFEFFFFFF-
  1134 00000C5B FFFFFFFFFFFFFFFFFF-
  1134 00000C64 FFFFFFFFFFFFFFFFFF-
  1134 00000C6D 131312121313131212-
  1134 00000C76 D1D1D1D1D1D1D18888-
  1134 00000C7F D18888FFFFFFFFFF89-
  1134 00000C88 E91212111214A18989-
  1134 00000C91 D2D172FFFFFFFFFFFE-
  1134 00000C9A FFFFFFFFFFFFFFFFFF-
  1134 00000CA3 FFFFFFFFFFFFFFFFFF-
  1134 00000CAC FFFFFFFF1212121312-
  1134 00000CB5 121212D1D188728888-
  1134 00000CBE 718888D2FFFFFFFFFF-
  1134 00000CC7 FFFFFF881212121416-
  1134 00000CD0 15EAEA0816EAFFFFFF-
  1134 00000CD9 FFFFFEFFFFFFFFFFFF-
  1134 00000CE2 FFFFFFFFFFFFFFFFFF-
  1134 00000CEB FFFFFFFFFFFFFFFFE8-
  1134 00000CF4 EA14121212D18888B9-
  1134 00000CFD 71898889FFFFFFFFFF-
  1134 00000D06 FFFFFFFFFFFFFF88D1-
  1134 00000D0F D1EAE913E9EA08A2A2-
  1134 00000D18 A1FFFFFFFFFEFFFFFF-
  1134 00000D21 FFFFFFFFFFFFFFFFFF-
  1134 00000D2A FFFFFFFFFFFFFFFFFF-
  1134 00000D33 FFFFE9131313121212-
  1134 00000D3C FFFFFFFFFFFFFFFFFF-
  1134 00000D45 FFFFFFFFFFFFFFFFFF-
  1134 00000D4E FFFFFFFFD1D1D1D188-
  1134 00000D57 D2EAEA89FFFFFFFFFE-
  1134 00000D60 FFFFFFFFFFFFFFFFFF-
  1134 00000D69 FFFFFFFFFFFFFFFFFF-
  1134 00000D72 FFFFFFFFFFFF12E913-
  1134 00000D7B 1212FFFFFFFFFFFFFF-
  1134 00000D84 FFFFFFFFFFFFFFFFFF-
  1134 00000D8D FFFFFFFFFFFFFFFFFF-
  1134 00000D96 FFFFFFFF8971FFFFFF-
  1134 00000D9F FFFFFEFFFFFFFFFFFF-
  1134 00000DA8 FFFFFFFFFFFFFFFFFF-
  1134 00000DB1 FFFFFFFFFFFFFFFFFF-
  1134 00000DBA 13D1121212FFFFFFFF-
  1134 00000DC3 FFFFFFFFFFFFFFFFFF-
  1134 00000DCC FFFFFFFFFFFFFFFFFF-
  1134 00000DD5 FFFFFFFFFFFF15D188-
  1134 00000DDE FFFFFFFFFFFEFFFFFF-
  1134 00000DE7 FFFFFFFFFFFFFFFFFF-
  1134 00000DF0 FFFFFFFFFFFFFFFFFF-
  1134 00000DF9 FFFFFF121312D1E9FF-
  1134 00000E02 FFFFFFFFFFFFFFFFFF-
  1134 00000E0B FFFFFFFFFFFFFFFFFF-
  1134 00000E14 FFFFFFFFFFFFFFFFFF-
  1134 00000E1D EAD189FF2B2B2BFFFE-
  1134 00000E26 FFFFFFFFFFFFFFFFFF-
  1134 00000E2F FFFFFFFFFFFFFFFFFF-
  1134 00000E38 FFFFFFFFFFFFFF1312-
  1134 00000E41 D1FFFFFFFFFFFFFFFF-
  1134 00000E4A FFFFFFFFFFFFFFFFFF-
  1134 00000E53 FFFFFFFFFFFFFFFFFF-
  1134 00000E5C FFFFEAE8D18943435C-
  1134 00000E65 5B1EFEFFFFFFFFFFFF-
  1134 00000E6E FFFFFFFFFFFFFFFFFF-
  1134 00000E77 FFFFFFFFFFFFFFFFFF-
  1134 00000E80 FF1412D0FFFFFFFFFF-
  1134 00000E89 FFFFFFFFFFFFFFFFFF-
  1134 00000E92 FFFFFFFFFFFFFFFFFF-
  1134 00000E9B FFFFFFFF89EA722B06-
  1134 00000EA4 424243431EFEFFFFFF-
  1134 00000EAD FFFFFFFFFFFFFFFFFF-
  1134 00000EB6 FFFFFFFFFFFFFFFFFF-
  1134 00000EBF FFFFFFFFEA1412FFFF-
  1134 00000EC8 FFFFFFFFFFFFFFFFFF-
  1134 00000ED1 FFFFFFFFFFFFFFFFFF-
  1134 00000EDA FFFFFFFFFFFFFFEA41-
  1134 00000EE3 4343434343434359FE-
  1134 00000EEC FFFFFFFFFFFFFFFFFF-
  1134 00000EF5 FFFFFFFFFFFFFFFFFF-
  1134 00000EFE FFFFFFFFFFFFFF15EA-
  1134 00000F07 13FFFFFFFFFFFFFFFF-
  1134 00000F10 FFFFFFFFFFFFFFFFFF-
  1134 00000F19 FFFFFFFFFFFFFFFFFF-
  1134 00000F22 FFD171434343434343-
  1134 00000F2B 431EFEFFFFFFFFFFFF-
  1134 00000F34 FFFFFFFFFFFFFFFFFF-
  1134 00000F3D FFFFFFFFFFFFFFFFFF-
  1134 00000F46 FF14D188B9FFFFFFFF-
  1134 00000F4F FFFFFFFFFFFFFFFFFF-
  1134 00000F58 FFFFFFFFFFFFFFFFFF-
  1134 00000F61 FFFFFFFFFFD1424243-
  1134 00000F6A 432B2B4359FEFFFFFF-
  1134 00000F73 FFFFFFFFFFFFFFFFFF-
  1134 00000F7C FFFFFFFFFFFFFFFFFF-
  1134 00000F85 FFFFFFFFE8887171FF-
  1134 00000F8E FFFFFFFFFFFFFFFFFF-
  1134 00000F97 FFFFFFFFFFFFFFFFFF-
  1134 00000FA0 FFFFFFFFFFFFFFFFFF-
  1134 00000FA9 2B2B424343FF2B2BFE-
  1134 00000FB2 FFFFFFFFFFFFFFFFFF-
  1134 00000FBB FFFFFFFFFFFFFFFFFF-
  1134 00000FC4 FFFFFFFFFFFFFFE888-
  1134 00000FCD 434306FFFFFFFFFFFF-
  1134 00000FD6 FFFFFFFFFFFFFFFFFF-
  1134 00000FDF FFFFFFFFFFFFFFFFFF-
  1134 00000FE8 FFFFFFFF2B2B434343-
  1134 00000FF1 4343FEFFFFFFFFFFFF-
  1134 00000FFA FFFFFFFFFFFFFFFFFF-
  1134 00001003 FFFFFFFFFFFFFFFFFF-
  1134 0000100C FFEA71435C4306FFFF-
  1134 00001015 FFFFFFFFFFFFFFFFFF-
  1134 0000101E FFFFFFFFFFFFFFFFFF-
  1134 00001027 FFFFFFFFFFFFFFFFFF-
  1134 00001030 4343432B2BFEFFFFFF-
  1134 00001039 FFFFFFFFFFFFFFFFFF-
  1134 00001042 FFFFFFFFFFFFFFFFFF-
  1134 0000104B FFFFFFFF42435C5C5C-
  1134 00001054 434343432B2B2B2B2B-
  1134 0000105D FFFFFFFFFFFFFFFFFF-
  1134 00001066 FFFFFFFFFFFFFFFFFF-
  1134 0000106F FFFFFF43432B4343FE-
  1134 00001078 FFFFFFFFFFFFFFFFFF-
  1134 00001081 FFFFFFFFFFFFFFFFFF-
  1134 0000108A FFFFFFFF434342435C-
  1134 00001093 5C43434343435C5C5C-
  1134 0000109C 5C5C43434342FFFFFF-
  1134 000010A5 FFFFFFFFFFFFFFFFFF-
  1134 000010AE FFFFFFFFFF43434343-
  1134 000010B7 4343FEFFFFFFFFFFFF-
  1134 000010C0 FFFFFFFFFFFFFFFFFF-
  1134 000010C9 FFFFFFFF2B2B434343-
  1134 000010D2 4343435C5C432B435C-
  1134 000010DB 5C5C5C5C4343425B43-
  1134 000010E4 434343432B2AFFFFFF-
  1134 000010ED FFFFFFFFFFFFFFFF2B-
  1134 000010F6 434343432BFEFFFFFF-
  1134 000010FF FFFFFFFFFFFFFFFFFF-
  1134 00001108 FFFFFFFFFFFFFF2B43-
  1134 00001111 43434342435C5C4343-
  1134 0000111A 434343434343434343-
  1134 00001123 434343435C43434343-
  1134 0000112C FFFFFFFFFFFFFFFFFF-
  1134 00001135 FFFFFF2B43432BFFFE-
  1134 0000113E FFFFFFFFFFFFFFFFFF-
  1134 00001147 FFFFFFFFFFFFFFFFFF-
  1134 00001150 FFFF2B435C43435B5A-
  1134 00001159 43434343435C5C4343-
  1134 00001162 43435C5C5C43434343-
  1134 0000116B 43432BFFFFFFFFFFFF-
  1134 00001174 FFFFFFFFFFFFFFFFFF-
  1134 0000117D FFFFFEFFFFFFFFFFFF-
  1134 00001186 FFFFFFFFFFFFFFFFFF-
  1134 0000118F FFFFFFFFFFFFFF4342-
  1134 00001198 42425959434343435C-
  1134 000011A1 5C4343434343434343-
  1134 000011AA 432B06FFFFFFFFFFFF-
  1134 000011B3 FFFFFFFFFFFFFFFFFF-
  1134 000011BC FFFFFFFFFFFEFFFFFF-
  1134 000011C5 FFFFFFFFFFFFFFFFFF-
  1134 000011CE FFFFFFFFFFFFFFFFFF-
  1134 000011D7 FF4343435B59FFFF2A-
  1134 000011E0 2AFF2B4343432B2BFF-
  1134 000011E9 FFFFFFFFFFFFFFFFFF-
  1134 000011F2 FFFFFFFFFFFFFFFFFF-
  1134 000011FB FFFFFFFFFFFFFFFFFE-
  1134 00001204 FFFFFFFFFFFFFFFFFF-
  1134 0000120D FFFFFFFFFFFFFFFFFF-
  1134 00001216 FFFFFFFFFF2B2B42FF-
  1134 0000121F FFFFFFFFFFFFFFFFFF-
  1134 00001228 FFFFFFFFFFFFFFFFFF-
  1134 00001231 FFFFFFFFFFFFFFFFFF-
  1134 0000123A FFFFFFFFFFFFFFFFFF-
  1134 00001243 FFFFFEFFFFFFFFFFFF-
  1134 0000124C FFFFFFFFFFFFFFFFFF-
  1134 00001255 FFFFFFFFFFFFFFFFFF-
  1134 0000125E FFFFFFFFFFFFFFFFFF-
  1134 00001267 FFFFFFFFFFFFFFFFFF-
  1134 00001270 FFFFFFFFFFFFFFFFFF-
  1134 00001279 FFFFFFFFFFFFFFFFFF-
  1134 00001282 FFFFFFFFFFFEFFFFFF-
  1134 0000128B FFFFFFFFFFFFFFFFFF-
  1134 00001294 FFFFFFFFFFFFFFFFFF-
  1134 0000129D FFFFFFFFFFFFFFFFFF-
  1134 000012A6 FFFFFFFFFFFFFFFFFF-
  1134 000012AF FFFFFFFFFFFFFFFFFF-
  1134 000012B8 FFFFFFFFFFFFFFFFFF-
  1134 000012C1 FFFFFFFFFFFFFFFFFE-
  1134 000012CA 00                 
  1135 000012CB FFFFFFFFFFFFFFFFFF-     horse2:db 255,255,255,255,255,255,255,255,255,255,255,255,255,255,255,255,255,255,255,255,255,255,255,255,255,255,255,255,255,255,255,255,255,255,255,255,255,255,255,255,255,255,255,255,255,255,255,255,255,255,255,255,255,255,255,255,255,255,255,255,255,255,255,255,255,254,255,255,255,255,255,255,255,255,255,255,255,255,255,255,255,255,255,255,255,255,255,255,255,255,255,255,255,255,255,255,255,255,255,255,255,255,255,255,255,255,255,255,255,255,255,255,255,255,255,255,255,255,255,255,255,255,255,255,255,255,255,255,255,255,255,254,255,255,255,255,255,255,255,255,255,255,255,255,255,255,255,255,255,255,255,255,255,255,255,255,255,255,255,255,255,255,255,255,255,255,255,255,255,255,255,255,255,255,255,255,255,255,255,255,255,255,255,255,255,255,255,255,255,255,255,255,255,255,255,255,255,254,255,255,255,255,255,255,255,255,255,255,255,255,255,255,255,255,255,255,255,255,255,255,255,255,255,255,255,255,255,255,255,255,255,255,255,255,255,255,255,255,255,255,255,255,255,255,255,255,255,255,255,255,255,255,25...
  1135 000012D4 FFFFFFFFFFFFFFFFFF-
  1135 000012DD FFFFFFFFFFFFFFFFFF-
  1135 000012E6 FFFFFFFFFFFFFFFFFF-
  1135 000012EF FFFFFFFFFFFFFFFFFF-
  1135 000012F8 FFFFFFFFFFFFFFFFFF-
  1135 00001301 FFFFFFFFFFFFFFFFFF-
  1135 0000130A FFFFFEFFFFFFFFFFFF-
  1135 00001313 FFFFFFFFFFFFFFFFFF-
  1135 0000131C FFFFFFFFFFFFFFFFFF-
  1135 00001325 FFFFFFFFFFFFFFFFFF-
  1135 0000132E FFFFFFFFFFFFFFFFFF-
  1135 00001337 FFFFFFFFFFFFFFFFFF-
  1135 00001340 FFFFFFFFFFFFFFFFFF-
  1135 00001349 FFFFFFFFFFFEFFFFFF-
  1135 00001352 FFFFFFFFFFFFFFFFFF-
  1135 0000135B FFFFFFFFFFFFFFFFFF-
  1135 00001364 FFFFFFFFFFFFFFFFFF-
  1135 0000136D FFFFFFFFFFFFFFFFFF-
  1135 00001376 FFFFFFFFFFFFFFFFFF-
  1135 0000137F FFFFFFFFFFFFFFFFFF-
  1135 00001388 FFFFFFFFFFFFFFFFFE-
  1135 00001391 FFFFFFFFFFFFFFFFFF-
  1135 0000139A FFFFFFFFFFFFFFFFFF-
  1135 000013A3 FFFFFFFFFFFFFFFFFF-
  1135 000013AC FFFFFFFFFFFFFFFFFF-
  1135 000013B5 FFFFFFFFFFFFFFFFFF-
  1135 000013BE FFFFFFFFFFFFFFFFFF-
  1135 000013C7 FFFFFFFFFFFFFFFFFF-
  1135 000013D0 FFFFFEFFFFFFFFFFFF-
  1135 000013D9 FFFFFFFFFFFFFFFFFF-
  1135 000013E2 FFFFFFFFFFFFFFFFFF-
  1135 000013EB FFFFFFFFFFFFFFFFFF-
  1135 000013F4 FFFFFFFFFFFFFFFFFF-
  1135 000013FD FFFFFFFFFFFFFFFFFF-
  1135 00001406 FFFFFFFFFFFFFFFFFF-
  1135 0000140F FFFFFFFFFFFEFFFFFF-
  1135 00001418 FFFFFFFFFFFFFFFFFF-
  1135 00001421 FFFFFFFFFFFFFFFFFF-
  1135 0000142A FFFFFFFFFFFFFFFFFF-
  1135 00001433 FFFFFFFFFFFFFFFFFF-
  1135 0000143C FFFFFFFFFFFFFFFFFF-
  1135 00001445 FFFFFFFFFFFFFFFFFF-
  1135 0000144E FFFFFFFFFFFFFFFFFE-
  1135 00001457 FFFFFFFFFFFFFFFFFF-
  1135 00001460 FFFFFFFFFFFFFFFFFF-
  1135 00001469 FFFFFFFFFFFFFFFFFF-
  1135 00001472 FFFFFFFFFFFFFFFFFF-
  1135 0000147B FFFFFFFFFFFFFFFFFF-
  1135 00001484 FFFFFFFFFFFFFFFFFF-
  1135 0000148D FFFFFFFFFFFFFFFFFF-
  1135 00001496 FFFFFEFFFFFFFFFFFF-
  1135 0000149F FFFFFFFFFFFFFFFFFF-
  1135 000014A8 FFFFFFFFFFFFFFFFFF-
  1135 000014B1 FFFFFFFFFFFFFFFFFF-
  1135 000014BA FFFFFFFFFFFFFFFFFF-
  1135 000014C3 FFFFFFFFFFFFFFFFFF-
  1135 000014CC FFFFFFFFFFFFFFFFFF-
  1135 000014D5 FFFFFFFFFFFEFFFFFF-
  1135 000014DE FFFFFFFFFFFFFFFFFF-
  1135 000014E7 FFFFFFFFFFFFFFFFFF-
  1135 000014F0 FFFFFFFFFFFFFFFFFF-
  1135 000014F9 FFBA72BAB9FFFFFFFF-
  1135 00001502 FFFFFFFFFFFFFFFFFF-
  1135 0000150B FFFFFFFFFFFFFFFFFF-
  1135 00001514 FFFFFFFFFFFFFFFFFE-
  1135 0000151D FFFFFFFFFFFFFFFFFF-
  1135 00001526 FFFFFFFFFFFFFFFFFF-
  1135 0000152F FFFFFFFFFFFFFFFFFF-
  1135 00001538 FFFFFFB9BABABABABA-
  1135 00001541 FFFFFFFFFFFFFFFFFF-
  1135 0000154A FFFFFFFFFFFFFFFFFF-
  1135 00001553 FFFFFFFFFFFFFFFFFF-
  1135 0000155C FFFFFEFFFFFFFFFFFF-
  1135 00001565 FFFFFFFFFFFFFFFFFF-
  1135 0000156E FFFFFFFFFFFFFFFFFF-
  1135 00001577 FFFFFFFFFFFFBAB9B9-
  1135 00001580 B9B9B9BA11FFFFFFFF-
  1135 00001589 FFFFFFFFFFFFFFFFFF-
  1135 00001592 FFFFFFFFFFFFFFFFFF-
  1135 0000159B FFFFFFFFFFFEFFFFFF-
  1135 000015A4 FFFFFFFFFFFFFFFFFF-
  1135 000015AD FF0C412B4243432A43-
  1135 000015B6 FFFF06FFFFFFFFB971-
  1135 000015BF BA11B9B9D2EABABAFF-
  1135 000015C8 FFFFFFFFFFFFFFFFFF-
  1135 000015D1 FFFFFFFFFFFFFFFFFF-
  1135 000015DA FFFFFFFFFFFFFFFFFE-
  1135 000015E3 FFFFFFFFFFFFFFFFFF-
  1135 000015EC 2B4243424241434344-
  1135 000015F5 5C4342422A06FFFFFF-
  1135 000015FE FF71BABABA8AEC9293-
  1135 00001607 9403FFFFFFFFFFFFFF-
  1135 00001610 FFFFFFFF59FFFFFFFF-
  1135 00001619 FFFFFFFFFFFFFFFFFF-
  1135 00001622 FFFFFEFFFFFFFFFFFF-
  1135 0000162B FFFF41434343414041-
  1135 00001634 4243435B434343422A-
  1135 0000163D FFFFFFFF7171898919-
  1135 00001646 AC949494944AFFFFFF-
  1135 0000164F FFFFFF1C5A5A5A42FF-
  1135 00001658 FFFFFFFFFFFFFFFFFF-
  1135 00001661 FFFFFFFFFFFEFFFFFF-
  1135 0000166A FFFFFFFF16A3401919-
  1135 00001673 08A2424141435C5C44-
  1135 0000167C 5C4343FFFFFFFF4342-
  1135 00001685 4106A41918AC94034A-
  1135 0000168E 4AFFFFFF5A425A5A5A-
  1135 00001697 5A42FFFFFFFFFFFFFF-
  1135 000016A0 FFFFFFFFFFFFFFFFFE-
  1135 000016A9 FFFFFFFFFF18191919-
  1135 000016B2 400C1516160C424243-
  1135 000016BB 435B435B434242422A-
  1135 000016C4 2B434343434119AC94-
  1135 000016CD 94034A4A4AFF075A5A-
  1135 000016D6 5A5A421AFFFFFFFFFF-
  1135 000016DF FFFFFFFFFFFF2A41FF-
  1135 000016E8 FFFFFEFFFFFF081A1A-
  1135 000016F1 1A1919081608A0EA89-
  1135 000016FA 41434142434242435B-
  1135 00001703 432B43434243434219-
  1135 0000170C 1994941A4A4A4A4A5A-
  1135 00001715 425942411AFFFFFFFF-
  1135 0000171E FFFFFF5B06FFFF2A42-
  1135 00001727 424343432BFEFFFFFF-
  1135 00001730 17191A1815151615EB-
  1135 00001739 EBD11314060C414243-
  1135 00001742 414143434343434343-
  1135 0000174B 42FF1919191A03034A-
  1135 00001754 4A1C5A42A4EB121213-
  1135 0000175D 15FFFF2A2B2B2B4343-
  1135 00001766 4242434343434343FE-
  1135 0000176F FFFF15151708141214-
  1135 00001778 151313D112121212E9-
  1135 00001781 894143434243434343-
  1135 0000178A 4343425CFFFFFF1B07-
  1135 00001793 191A034A1B1A190816-
  1135 0000179C 151413E8E8A1414342-
  1135 000017A5 414343424243434141-
  1135 000017AE 4343FEFFFF15EB1412-
  1135 000017B7 121112131312121112-
  1135 000017C0 12121214150C434242-
  1135 000017C9 42435B5B434343420C-
  1135 000017D2 160703A61A4A624A1A-
  1135 000017DB 1A19191919171615EB-
  1135 000017E4 0C41414242420C4142-
  1135 000017ED 4342424343FEFFFF14-
  1135 000017F6 1312121212121112D2-
  1135 000017FF 1212121212121213EB-
  1135 00001808 890641435B5B434343-
  1135 00001811 5B5C431D1DAB16181B-
  1135 0000181A 621C1B1A1919191917-
  1135 00001823 151589415B43434241-
  1135 0000182C 2A42434343434343FE-
  1135 00001835 FFFFFF131112FFFFFF-
  1135 0000183E FFFFB9141211121212-
  1135 00001847 121213EA8A19424343-
  1135 00001850 43435B435B431D0718-
  1135 00001859 1919191B1C071817A3-
  1135 00001862 171615EBEB890C4343-
  1135 0000186B 2B422A412B4242422B-
  1135 00001874 2B42FEFFFFFFFFFFFF-
  1135 0000187D FFFFFFFFFFFFFFFF12-
  1135 00001886 12121212131313A018-
  1135 0000188F 194141414141425B5B-
  1135 00001898 1C1918191918898A06-
  1135 000018A1 A4160816EC1414EB88-
  1135 000018AA 89A4FFFFFFFFFFFFFF-
  1135 000018B3 FFFFFFFF2AFEFFFFFF-
  1135 000018BC FFFFFFFFFFFFFFFFFF-
  1135 000018C5 FFFFFF131212121213-
  1135 000018CE 13A11919191A191919-
  1135 000018D7 4042421A1919191817-
  1135 000018E0 15EA88EB1515151414-
  1135 000018E9 14EAEB8889A0FFFFFF-
  1135 000018F2 FFFFFFFFFFFFFFFFFE-
  1135 000018FB FFFFFFFFFFFFFFFFFF-
  1135 00001904 FFFFFFFFFFFFFFFF12-
  1135 0000190D 111212131518191919-
  1135 00001916 191918A3A219181818-
  1135 0000191F 170816161413131414-
  1135 00001928 141414ECECEB888888-
  1135 00001931 FFFFFFFFFFFFFFFFFF-
  1135 0000193A FFFFFEFFFFFFFFFFFF-
  1135 00001943 FFFFFFFFFFFFFFFFFF-
  1135 0000194C FFFF11121213141618-
  1135 00001955 191818A318A1161616-
  1135 0000195E 081616151515151413-
  1135 00001967 131413131414EBECEB-
  1135 00001970 88EAE811FFFFFFFFFF-
  1135 00001979 FFFFFFFFFFFEFFFFFF-
  1135 00001982 FFFFFFFFFFFFFFFFFF-
  1135 0000198B FFFFFFFFFFFF111213-
  1135 00001994 141516181808161616-
  1135 0000199D 151515161515ECEB14-
  1135 000019A6 131313131313131314-
  1135 000019AF 1414EAEAE9E811FFFF-
  1135 000019B8 FFFFFFFFFFFFFFFFFE-
  1135 000019C1 FFFFFFFFFFFFFFFFFF-
  1135 000019CA FFFFFFFFFFFFFFFFFF-
  1135 000019D3 FF1212131415151515-
  1135 000019DC 15161515151515EB14-
  1135 000019E5 131312121212121213-
  1135 000019EE 131314141313D1D1D1-
  1135 000019F7 FFFFFFFFFFFFFFFFFF-
  1135 00001A00 FFFFFEFFFFFFFFFFFF-
  1135 00001A09 FFFFFFFFFFFFFFFFFF-
  1135 00001A12 FFFFFFFF1213131313-
  1135 00001A1B 131314EBEBEB14EA13-
  1135 00001A24 1313131212121212D0-
  1135 00001A2D D112121313131313D1-
  1135 00001A36 D1D0D1FFFFFFFFFFFF-
  1135 00001A3F FFFFFFFFFFFEFFFFFF-
  1135 00001A48 FFFFFFFFFFFFFFFFFF-
  1135 00001A51 FFFFFFFFFFFFFFFF14-
  1135 00001A5A 1313131313EBEB1313-
  1135 00001A63 D11312121212121212-
  1135 00001A6C D1D1D1D0D0D0121313-
  1135 00001A75 131212D2E88AFFFFFF-
  1135 00001A7E FFFFFFFFFFFFFFFFFE-
  1135 00001A87 FFFFFFFFFFFFFFFFFF-
  1135 00001A90 FFFFFFFFFFFFFFFFFF-
  1135 00001A99 FFFF13131312121314-
  1135 00001AA2 141312121211121211-
  1135 00001AAB D188D28888D2D0D012-
  1135 00001AB4 121212121212151515-
  1135 00001ABD 1511FFFFFFFFFFFFFF-
  1135 00001AC6 FFFFFEFFFFFFFFFFFF-
  1135 00001ACF FFFFFFFFFFFFFFFFFF-
  1135 00001AD8 FFFFFFFFFFFF131312-
  1135 00001AE1 12121212121212D1D0-
  1135 00001AEA D012D18888898988FF-
  1135 00001AF3 D1D1D2D1D1121212EC-
  1135 00001AFC 1515161515FF12FFFF-
  1135 00001B05 FFFFFFFFFFFEFFFFFF-
  1135 00001B0E FFFFFFFFFFFFFFFFFF-
  1135 00001B17 FFFFFFFFFFFFFFFFFF-
  1135 00001B20 121312121212121212-
  1135 00001B29 1271D1D18888888888-
  1135 00001B32 D2FFFFFF8988888888-
  1135 00001B3B D1E915ECEAEA15A118-
  1135 00001B44 A1FFFFFFFFFFFFFFFE-
  1135 00001B4D FFFFFFFFFFFFFFFFFF-
  1135 00001B56 FFFFFFFFFFFFFFFFFF-
  1135 00001B5F FFFFFF111413121313-
  1135 00001B68 121212D0D188888889-
  1135 00001B71 8988FFFFFFFFFFFFD0-
  1135 00001B7A 8888D0D1D212D1D2D1-
  1135 00001B83 E90817A113FFFFFFFF-
  1135 00001B8C FFFFFEFFFFFFFFFFFF-
  1135 00001B95 FFFFFFFFFFFFFFFFFF-
  1135 00001B9E FFFFFFFFFFFFFFFF12-
  1135 00001BA7 121312121212D1D3EA-
  1135 00001BB0 D2FFFFFFFFFFFFFFFF-
  1135 00001BB9 FFFFFFFFFFFFCFD0D0-
  1135 00001BC2 D0D1D1D1EAEC891312-
  1135 00001BCB FFFFFFFFFFFEFFFFFF-
  1135 00001BD4 FFFFFFFFFFFFFFFFFF-
  1135 00001BDD FFFFFFFFFFFFFFFFFF-
  1135 00001BE6 FFFF12121112121313-
  1135 00001BEF D1D1FFFFFFFFFFFFFF-
  1135 00001BF8 FFFFFFFFFFFFFFFFFF-
  1135 00001C01 12111271718CA1EC88-
  1135 00001C0A D188D0FFFFFFFFFFFE-
  1135 00001C13 FFFFFFFFFFFFFFFFFF-
  1135 00001C1C FFFFFFFFFFFFFFFFFF-
  1135 00001C25 FFFFFFFFFF13121112-
  1135 00001C2E 121212D112FFFFFFFF-
  1135 00001C37 FFFFFFFFFFFFFFFFFF-
  1135 00001C40 FFFF1211D0D0880CA2-
  1135 00001C49 16E8D088FFFF41FFFF-
  1135 00001C52 FFFFFEFFFFFFFFFFFF-
  1135 00001C5B FFFFFFFFFFFFFFFFFF-
  1135 00001C64 FFFFFFFFFFFFFFFFFF-
  1135 00001C6D 1311111212121212D0-
  1135 00001C76 FFFFFFFFFFFFFFFFFF-
  1135 00001C7F FFFFFFFF1112D07188-
  1135 00001C88 8B16E913D089FFFF2B-
  1135 00001C91 4342FFFF5BFEFFFFFF-
  1135 00001C9A FFFFFFFFFFFFFFFFFF-
  1135 00001CA3 FFFFFFFFFFFFFFFFFF-
  1135 00001CAC FFFFFF13111111D012-
  1135 00001CB5 D1D1EAFFFF2A2AFFFF-
  1135 00001CBE FFFFFFFFFFFFFF1111-
  1135 00001CC7 D18889A1ECE9062B2B-
  1135 00001CD0 4242435C0E41FF42FE-
  1135 00001CD9 FFFFFFFFFFFFFFFFFF-
  1135 00001CE2 FFFFFFFFFFFFFFFFFF-
  1135 00001CEB FFFFFFFFFFFFFF1212-
  1135 00001CF4 11121212E888FF422B-
  1135 00001CFD 42434341FFFFFFFFFF-
  1135 00001D06 FFD0D22A2B2B0C1543-
  1135 00001D0F 4342434343435C4343-
  1135 00001D18 4243FEFFFFFFFFFFFF-
  1135 00001D21 FFFFFFFFFFFFFFFFFF-
  1135 00001D2A FFFFFFFFFFFFFFFFFF-
  1135 00001D33 FF1212D01111131589-
  1135 00001D3C D1892A42431E5A1EFF-
  1135 00001D45 2B42FFFF0606424343-
  1135 00001D4E 432A4143435B5B5B5C-
  1135 00001D57 5C5C432B43FEFFFFFF-
  1135 00001D60 FFFFFFFFFFFFFFFFFF-
  1135 00001D69 FFFFFFFFFFFFFFFFFF-
  1135 00001D72 FFFFFFFF121212D011-
  1135 00001D7B 13141312122A42435B-
  1135 00001D84 5B422B2B2B2B2B2A2A-
  1135 00001D8D 2B4343435B1E414243-
  1135 00001D96 1E0F5C5C5C434343FE-
  1135 00001D9F FFFFFFFFFFFFFFFFFF-
  1135 00001DA8 FFFFFFFFFFFFFFFFFF-
  1135 00001DB1 FFFFFFFFFFFFFF1111-
  1135 00001DBA 12D1D11212D2D1882B-
  1135 00001DC3 4343435C4343434343-
  1135 00001DCC 2B2A41434343431E0F-
  1135 00001DD5 4342435B5A435C5C2B-
  1135 00001DDE FF42FEFFFFFFFFFFFF-
  1135 00001DE7 FFFFFFFFFFFFFFFFFF-
  1135 00001DF0 FFFFFFFFFFFFFFFFFF-
  1135 00001DF9 FFFFFFFFFFD01512D0-
  1135 00001E02 D289422A2B2B434342-
  1135 00001E0B 43435C5B4241434343-
  1135 00001E14 434242424243434243-
  1135 00001E1D 5C5B2BFF2BFEFFFFFF-
  1135 00001E26 FFFFFFFFFFFFFFFFFF-
  1135 00001E2F FFFFFFFFFFFFFFFFFF-
  1135 00001E38 FFFFFFFFFFFFFFFFFF-
  1135 00001E41 FF1313E989FFFFFFFF-
  1135 00001E4A 42434343435C434206-
  1135 00001E53 434343430E2AFF4142-
  1135 00001E5C 0E2B424342FFFF2AFE-
  1135 00001E65 FFFFFFFFFFFFFFFFFF-
  1135 00001E6E FFFFFFFFFFFFFFFFFF-
  1135 00001E77 FFFFFFFFFFFFFFFFFF-
  1135 00001E80 FFFFFFFFD1E9EB88FF-
  1135 00001E89 FFFFFF2A2B42434342-
  1135 00001E92 0CFFFFFF42412B41FF-
  1135 00001E9B FFFF2B2AFFFF422AFF-
  1135 00001EA4 FFFFFEFFFFFFFFFFFF-
  1135 00001EAD FFFFFFFFFFFFFFFFFF-
  1135 00001EB6 FFFFFFFFFFFFFFFFFF-
  1135 00001EBF FFFFFFFFFFFFFFFF13-
  1135 00001EC8 89E91A2A41FFFF2B2B-
  1135 00001ED1 2B42FFFFFFFFFFFFFF-
  1135 00001EDA FFFFFFFFFFFFFFFFFF-
  1135 00001EE3 FFFFFFFFFFFEFFFFFF-
  1135 00001EEC FFFFFFFFFFFFFFFFFF-
  1135 00001EF5 FFFFFFFFFFFFFFFFFF-
  1135 00001EFE FFFFFFFFFFFFFFFFFF-
  1135 00001F07 FFFF14158942422B2B-
  1135 00001F10 42422B2B422B2B422A-
  1135 00001F19 5C2A42FFFFFFFFFFFF-
  1135 00001F22 FFFFFFFFFFFFFFFFFE-
  1135 00001F2B FFFFFFFFFFFFFFFFFF-
  1135 00001F34 FFFFFFFFFFFFFFFFFF-
  1135 00001F3D FFFFFFFFFFFFFFFFFF-
  1135 00001F46 FFFFFFFFFFEB890643-
  1135 00001F4F 4343434443422B4343-
  1135 00001F58 4343430E2B2B2AFFFF-
  1135 00001F61 FFFFFFFFFFFFFFFFFF-
  1135 00001F6A FFFFFEFFFFFFFFFFFF-
  1135 00001F73 FFFFFFFFFFFFFFFFFF-
  1135 00001F7C FFFFFFFFFFFFFFFFFF-
  1135 00001F85 FFFFFFFFFFFFFFFFA2-
  1135 00001F8E 2A42434343435C432B-
  1135 00001F97 2B4343444343444343-
  1135 00001FA0 432AFFFFFFFFFFFFFF-
  1135 00001FA9 FFFFFFFFFFFEFFFFFF-
  1135 00001FB2 FFFFFFFFFFFFFFFFFF-
  1135 00001FBB FFFFFFFFFFFFFFFFFF-
  1135 00001FC4 FFFFFFFFFFFFFFFFFF-
  1135 00001FCD FFFF1941424343445C-
  1135 00001FD6 5C42FFFF42435C4343-
  1135 00001FDF 435B5B432BFFFFFFFF-
  1135 00001FE8 FFFFFFFFFFFFFFFFFE-
  1135 00001FF1 FFFFFFFFFFFFFFFFFF-
  1135 00001FFA FFFFFFFFFFFFFFFFFF-
  1135 00002003 FFFFFFFFFFFFFFFFFF-
  1135 0000200C FFFFFFFFEBA3414243-
  1135 00002015 435B5C5B595AFFFF2B-
  1135 0000201E 5B43434342422B2BFF-
  1135 00002027 FFFFFFFFFFFFFFFFFF-
  1135 00002030 FFFFFEFFFFFFFFFFFF-
  1135 00002039 FFFFFFFFFFFFFFFFFF-
  1135 00002042 FFFFFFFFFFFFFFFFFF-
  1135 0000204B FFFFFFFFFFFFFF8AA3-
  1135 00002054 42435B5B435C1E57FF-
  1135 0000205D FFFF4242432A5BFFFF-
  1135 00002066 FFFFFFFFFFFFFFFFFF-
  1135 0000206F FFFFFFFFFFFEFFFFFF-
  1135 00002078 FFFFFFFFFFFFFFFFFF-
  1135 00002081 FFFFFFFFFFFFFFFFFF-
  1135 0000208A FFFFFFFFFFFFFFFFFF-
  1135 00002093 FFFF2A42434343435B-
  1135 0000209C 5A58FFFFFFFF2AFFFF-
  1135 000020A5 FFFFFFFFFFFFFFFFFF-
  1135 000020AE FFFFFFFFFFFFFFFFFE-
  1135 000020B7 FFFFFFFFFFFFFFFFFF-
  1135 000020C0 FFFFFFFFFFFFFFFFFF-
  1135 000020C9 FFFFFFFFFFFFFFFFFF-
  1135 000020D2 FFFFFFFFFFFFFF2B2A-
  1135 000020DB FF2A4241FFFFFFFFFF-
  1135 000020E4 FFFFFFFFFFFFFFFFFF-
  1135 000020ED FFFFFFFFFFFFFFFFFF-
  1135 000020F6 FFFFFEFFFFFFFFFFFF-
  1135 000020FF FFFFFFFFFFFFFFFFFF-
  1135 00002108 FFFFFFFFFFFFFFFFFF-
  1135 00002111 FFFFFFFFFFFFFFFFFF-
  1135 0000211A FFFFFFFFFFFFFFFFFF-
  1135 00002123 FFFFFFFFFFFFFFFFFF-
  1135 0000212C FFFFFFFFFFFFFFFFFF-
  1135 00002135 FFFFFFFFFFFEFFFFFF-
  1135 0000213E FFFFFFFFFFFFFFFFFF-
  1135 00002147 FFFFFFFFFFFFFFFFFF-
  1135 00002150 FFFFFFFFFFFFFFFFFF-
  1135 00002159 FFFFFFFFFFFFFFFFFF-
  1135 00002162 FFFFFFFFFFFFFFFFFF-
  1135 0000216B FFFFFFFFFFFFFFFFFF-
  1135 00002174 FFFFFFFFFFFFFFFFFE-
  1135 0000217D 00                 
  1136 0000217E FFFFFFFFFFFFFFFFFF-     horse3:db 255,255,255,255,255,255,255,255,255,255,255,255,255,255,255,255,255,255,255,255,255,255,255,255,255,255,255,255,255,255,255,255,255,255,255,255,255,255,255,255,255,255,255,255,255,255,255,255,255,255,255,255,255,255,255,255,255,255,255,255,255,255,255,255,255,254,255,255,255,255,255,255,255,255,255,255,255,255,255,255,255,255,255,255,255,255,255,255,255,255,255,255,255,255,255,255,255,255,255,255,255,255,255,255,255,255,255,255,255,255,255,255,255,255,255,255,255,255,255,255,255,255,255,255,255,255,255,255,255,255,255,254,255,255,255,255,255,255,255,255,255,255,255,255,255,255,255,255,255,255,255,255,255,255,255,255,255,255,255,255,255,255,255,255,255,255,255,255,255,255,255,255,255,255,255,255,255,255,255,255,255,255,255,255,255,255,255,255,255,255,255,255,255,255,255,255,255,254,255,255,255,255,255,255,255,255,255,255,255,255,255,255,255,255,255,255,255,255,255,255,255,255,255,255,255,255,255,255,255,255,255,255,255,255,255,255,255,255,255,255,255,255,255,255,255,255,255,255,255,255,255,255,25...
  1136 00002187 FFFFFFFFFFFFFFFFFF-
  1136 00002190 FFFFFFFFFFFFFFFFFF-
  1136 00002199 FFFFFFFFFFFFFFFFFF-
  1136 000021A2 FFFFFFFFFFFFFFFFFF-
  1136 000021AB FFFFFFFFFFFFFFFFFF-
  1136 000021B4 FFFFFFFFFFFFFFFFFF-
  1136 000021BD FFFFFEFFFFFFFFFFFF-
  1136 000021C6 FFFFFFFFFFFFFFFFFF-
  1136 000021CF FFFFFFFFFFFFFFFFFF-
  1136 000021D8 FFFFFFFFFFFFFFFFFF-
  1136 000021E1 FFFFFFFFFFFFFFFFFF-
  1136 000021EA FFFFFFFFFFFFFFFFFF-
  1136 000021F3 FFFFFFFFFFFFFFFFFF-
  1136 000021FC FFFFFFFFFFFEFFFFFF-
  1136 00002205 FFFFFFFFFFFFFFFFFF-
  1136 0000220E FFFFFFFFFFFFFFFFFF-
  1136 00002217 FFFFFFFFFFFFFFFFFF-
  1136 00002220 FFFFFFFFFFFFFFFFFF-
  1136 00002229 FFFFFFFFFFFFFFFFFF-
  1136 00002232 FFFFFFFFFFFFFFFFFF-
  1136 0000223B FFFFFFFFFFFFFFFFFE-
  1136 00002244 FFFFFFFFFFFFFFFFFF-
  1136 0000224D FFFFFFFFFFFFFFFFFF-
  1136 00002256 FFFFFFFFFFFFFFFFFF-
  1136 0000225F FFFFFFFFFFFFFFFFFF-
  1136 00002268 FFFFFFFFFFFFFFFFFF-
  1136 00002271 FFFFFFFFFFFFFFFFFF-
  1136 0000227A FFFFFFFFFFFFFFFFFF-
  1136 00002283 FFFFFEFFFFFFFFFFFF-
  1136 0000228C FFFFFFFFFFFFFFFFFF-
  1136 00002295 FFFFFFFFFFFFFFFFFF-
  1136 0000229E FFFFFFFFFFFFFFFFFF-
  1136 000022A7 FFFFFFFFFFFFFFFFFF-
  1136 000022B0 FFFFFFFFFFFFFFFFFF-
  1136 000022B9 FFFFFFFFFFFFFFFFFF-
  1136 000022C2 FFFFFFFFFFFEFFFFFF-
  1136 000022CB FFFFFFFFFFFFFFFFFF-
  1136 000022D4 FFFFFFFFFFFFFFFFFF-
  1136 000022DD FFFFFFFFFFFFFFFFFF-
  1136 000022E6 FFFFFFFFFFFFFFFFFF-
  1136 000022EF FFFFFFFFFFFFFFFFFF-
  1136 000022F8 FFFFFFFFFFFFFFFFFF-
  1136 00002301 FFFFFFFFFFFFFFFFFE-
  1136 0000230A FFFFFFFFFFFFFFFFFF-
  1136 00002313 FFFFFFFFFFFFFFFFFF-
  1136 0000231C FFFFFFFFFFFFFFFFFF-
  1136 00002325 FFFFFFFFFFFFFFFFFF-
  1136 0000232E FFFFFFFFFFFFFFFFFF-
  1136 00002337 FFFFFFFFFFFFFFFFFF-
  1136 00002340 FFFFFFFFFFFFFFFFFF-
  1136 00002349 FFFFFEFFFFFFFFFFFF-
  1136 00002352 FFFFFFFFFFFFFFFFFF-
  1136 0000235B FFFFFFFFFFFFFFFF2A-
  1136 00002364 422B41FFFFFFFFFFFF-
  1136 0000236D FFFFB9FFFFFFFFFFFF-
  1136 00002376 FFFFFFFFFFFFFFFFFF-
  1136 0000237F FFFFFFFFFFFFFFFFFF-
  1136 00002388 FFFFFFFFFFFEFFFFFF-
  1136 00002391 FFFFFFFFFFFFFFFFFF-
  1136 0000239A FFFFFFFFFFFFFFFFFF-
  1136 000023A3 FFFF435C5C434242FF-
  1136 000023AC FFFFBABA72BABABAFF-
  1136 000023B5 FFFFFFFFFFFFFFFFFF-
  1136 000023BE FFFFFFFFFFFFFFFFFF-
  1136 000023C7 FFFFFFFFFFFFFFFFFE-
  1136 000023D0 FFFFFFFFFFFFFFFFFF-
  1136 000023D9 FFFFFFFFFFFFFFFFFF-
  1136 000023E2 FFFFFFFF2B5C5C5C44-
  1136 000023EB 442AFFFFFFB9BABABA-
  1136 000023F4 B9BAD211FFFFFFFFFF-
  1136 000023FD FFFFFFFFFFFFFFFFFF-
  1136 00002406 FFFFFFFFFFFFFFFFFF-
  1136 0000240F FFFFFEFFFFFFFFFFFF-
  1136 00002418 FFFFFFFFFFFFFFFF2B-
  1136 00002421 42422B41FF432B435C-
  1136 0000242A 4343444343FFFFBBBA-
  1136 00002433 B9B911B9BABA11FFFF-
  1136 0000243C FFFFFFFFFFFFFFFFFF-
  1136 00002445 FFFFFFFFFFFFFFFFFF-
  1136 0000244E FFFFFFFFFFFEFFFFFF-
  1136 00002457 FFFFFFFFFFFFFFFFFF-
  1136 00002460 FF2B4342434343432B-
  1136 00002469 43435C5C43432B43FF-
  1136 00002472 FF71BAB9B9BAEAF416-
  1136 0000247B BAFFFFFFFFFFFFFFFF-
  1136 00002484 FFFFFFFFFFFFFFFFFF-
  1136 0000248D FFFFFFFFFFFFFFFFFE-
  1136 00002496 FFFFFFFFFFFFFFFFFF-
  1136 0000249F FFFF2B424341404143-
  1136 000024A8 43434243435B5B5C5C-
  1136 000024B1 2B2AFFB97171728815-
  1136 000024BA 939494FFFFFFFFFFFF-
  1136 000024C3 FFFFFF075A5A5AFFFF-
  1136 000024CC FFFFFFFFFFFFFFFFFF-
  1136 000024D5 FFFFFEFFFFFFFFFFFF-
  1136 000024DE FFFFFFFF4142424117-
  1136 000024E7 A3414042434243435B-
  1136 000024F0 435C5C432AFF06728C-
  1136 000024F9 06A2AC9494949494FF-
  1136 00002502 FFFFFFFFFF5A5A5A5A-
  1136 0000250B 42FFFFFFFFFFFFFFFF-
  1136 00002514 FFFFFFFFFFFEFFFFFF-
  1136 0000251D FFFFFFFFFF9F181941-
  1136 00002526 411515164142434242-
  1136 0000252F 43435B4343434342FF-
  1136 00002538 4342424241A4189494-
  1136 00002541 034A4AFFFFFF5A5A5A-
  1136 0000254A 5A5A4241FFFFFFFFFF-
  1136 00002553 FFFFFFFFFFFFFFFFFE-
  1136 0000255C FFFFFFFFFFFFA3A319-
  1136 00002565 19190C0C16A1EB8941-
  1136 0000256E 4343424342435B5B5B-
  1136 00002577 5C434342434342191A-
  1136 00002580 AC94944A4A4A4AFF5A-
  1136 00002589 5A5A595959FFFFFFFF-
  1136 00002592 FFFFFFFFFF5B065BFF-
  1136 0000259B FF2BFEFFFFFFFFFFFF-
  1136 000025A4 191A1A191808151589-
  1136 000025AD D113EA8941410C4242-
  1136 000025B6 434343434343432B2B-
  1136 000025BF FFA918AC191A4A4A4A-
  1136 000025C8 1C5A5A42418BFFFFFF-
  1136 000025D1 FFFFFFFF2B43432B2B-
  1136 000025DA 2B43434342FEFFFFFF-
  1136 000025E3 FFFF16181918151414-
  1136 000025EC 1413131212121213EA-
  1136 000025F5 89A14143424241435B-
  1136 000025FE 434106FFFFAB940303-
  1136 00002607 03034A1C421A8A1688-
  1136 00002610 E988A0192A2B2B4243-
  1136 00002619 4342434343434342FE-
  1136 00002622 FFFFFFFFFF15080813-
  1136 0000262B 121213131212111212-
  1136 00002634 121213EB890C424342-
  1136 0000263D 4343434343412A06E6-
  1136 00002646 1A1A94AC034A071919-
  1136 0000264F 191818161513E74141-
  1136 00002658 41434342424343410C-
  1136 00002661 4243FEFFFFFFFF1214-
  1136 0000266A 141311121212121212-
  1136 00002673 12111212111213EAEA-
  1136 0000267C 894143434342435B43-
  1136 00002685 42411907AC15AB0762-
  1136 0000268E 4A1A1A1919181715EB-
  1136 00002697 884243424242404243-
  1136 000026A0 4342424343FEFFFFFF-
  1136 000026A9 FFFF13121288BAFFFF-
  1136 000026B2 FFFF12111111121111-
  1136 000026BB 12131315A319404242-
  1136 000026C4 43435B43435A4A1919-
  1136 000026CD 191B1D1D1918181708-
  1136 000026D6 16158989425C434242-
  1136 000026DF 4143434343434242FE-
  1136 000026E8 FFFFFFFFFFFF13F6CF-
  1136 000026F1 FFFFFFFFFFFFFF1112-
  1136 000026FA 121211121313EBA219-
  1136 00002703 191A1A1A415B5C421C-
  1136 0000270C 1B19191940A4071917-
  1136 00002715 17161514EAE9880C43-
  1136 0000271E 2BFF2A0C2A42422B2B-
  1136 00002727 4242FEFFFFFFFFFFFF-
  1136 00002730 FFFFFFFFFFFFFFFFFF-
  1136 00002739 FFFFFF121111121213-
  1136 00002742 15A219191919191942-
  1136 0000274B 43411919191917A188-
  1136 00002754 068A1616EB141314E9-
  1136 0000275D E9888BFFFFFFFFFFFF-
  1136 00002766 FFFFFFFFFFFEFFFFFF-
  1136 0000276F FFFFFFFFFFFFFFFFFF-
  1136 00002778 FFFFFFFFFFFFFF1112-
  1136 00002781 121213150818181818-
  1136 0000278A 191918A3A218191817-
  1136 00002793 0816141212ECEC1414-
  1136 0000279C 14EAE8E88888FFFFFF-
  1136 000027A5 FFFFFFFFFFFFFFFFFE-
  1136 000027AE FFFFFFFFFFFFFFFFFF-
  1136 000027B7 FFFFFFFFFFFFFFFFFF-
  1136 000027C0 FFFF11121214151618-
  1136 000027C9 1818A2A3A3A1A1A0A0-
  1136 000027D2 081615151514131214-
  1136 000027DB 14141414EAE9E888EA-
  1136 000027E4 FFFFFFFFFFFFFFFFFF-
  1136 000027ED FFFFFEFFFFFFFFFFFF-
  1136 000027F6 FFFFFFFFFFFFFFFFFF-
  1136 000027FF FFFFFFFFFFFF121214-
  1136 00002808 15A008A1A116161615-
  1136 00002811 151516161515EB1413-
  1136 0000281A 121213EA13141414E9-
  1136 00002823 E8E8E9FFFFFFFFFFFF-
  1136 0000282C FFFFFFFFFFFEFFFFFF-
  1136 00002835 FFFFFFFFFFFFFFFFFF-
  1136 0000283E FFFFFFFFFFFFFFFFFF-
  1136 00002847 11121314EA14141515-
  1136 00002850 15151515151515EB14-
  1136 00002859 131212121112141414-
  1136 00002862 EA1313D113D1FFFFFF-
  1136 0000286B FFFFFFFFFFFFFFFFFE-
  1136 00002874 FFFFFFFFFFFFFFFFFF-
  1136 0000287D FFFFFFFFFFFFFFFFFF-
  1136 00002886 FFFFFFFF1313131313-
  1136 0000288F 1414ECEC1514141413-
  1136 00002898 131313121212111213-
  1136 000028A1 14141313D1D1D112D2-
  1136 000028AA FFFFFFFFFFFFFFFFFF-
  1136 000028B3 FFFFFEFFFFFFFFFFFF-
  1136 000028BC FFFFFFFFFFFFFFFFFF-
  1136 000028C5 FFFFFFFFFFFFFF1213-
  1136 000028CE 13131314EC15141312-
  1136 000028D7 131212D012D0D1D1D1-
  1136 000028E0 71B9E814131312D1D1-
  1136 000028E9 D11211FFFFFFFFFFFF-
  1136 000028F2 FFFFFFFFFFFEFFFFFF-
  1136 000028FB FFFFFFFFFFFFFFFFFF-
  1136 00002904 FFFFFFFFFFFFFFFFFF-
  1136 0000290D FF1313131313131314-
  1136 00002916 131212121212D0D1D0-
  1136 0000291F D0880688BAD1D21212-
  1136 00002928 D0D188D112FFFFFFFF-
  1136 00002931 FFFFFFFFFFFFFFFFFE-
  1136 0000293A FFFFFFFFFFFFFFFFFF-
  1136 00002943 FFFFFFFFFFFFFFFFFF-
  1136 0000294C FFFFFFFF1513131212-
  1136 00002955 131212121288D012D1-
  1136 0000295E 888888060688D1D0D1-
  1136 00002967 D11212D0D0D0D1FFFF-
  1136 00002970 FFFFFFFFFFFFFFFFFF-
  1136 00002979 FFFFFEFFFFFFFFFFFF-
  1136 00002982 FFFFFFFFFFFFFFFFFF-
  1136 0000298B FFFFFFFFFFFFFF1212-
  1136 00002994 12121213131212D189-
  1136 0000299D D272888888888989FF-
  1136 000029A6 D1D1D1D11314E8D1D0-
  1136 000029AF E9FFFFFFFFFFFFFFFF-
  1136 000029B8 FFFFFFFFFFFEFFFFFF-
  1136 000029C1 FFFFFFFFFFFFFFFFFF-
  1136 000029CA FFFFFFFFFFFFFFFFFF-
  1136 000029D3 FF1212121212141312-
  1136 000029DC 12D18888888888898A-
  1136 000029E5 89FFFFFFD1D188EA15-
  1136 000029EE EBD112FFFFFFFFFFFF-
  1136 000029F7 FFFFFFFFFFFFFFFFFE-
  1136 00002A00 FFFFFFFFFFFFFFFFFF-
  1136 00002A09 FFFFFFFFFFFFFFFFFF-
  1136 00002A12 FFFFFFFF1212121112-
  1136 00002A1B 13131313D1D2888888-
  1136 00002A24 FFD0FFFFFFFFFFB9D1-
  1136 00002A2D 88EAEAE9E8D011FFFF-
  1136 00002A36 FFFFFFFFFFFFFFFFFF-
  1136 00002A3F FFFFFEFFFFFFFFFFFF-
  1136 00002A48 FFFFFFFFFFFFFFFFFF-
  1136 00002A51 FFFFFFFFFFFF111212-
  1136 00002A5A 12D088D112131388D1-
  1136 00002A63 FFFFFFFFFFFFFFFFFF-
  1136 00002A6C FFFF888889D2D18888-
  1136 00002A75 12FFFFFFFFFFFFFFFF-
  1136 00002A7E FFFFFFFFFFFEFFFFFF-
  1136 00002A87 FFFFFFFFFFFFFFFFFF-
  1136 00002A90 FFFFFFFFFFFFFFFFFF-
  1136 00002A99 12131312D0E9121212-
  1136 00002AA2 D1D212FFFFFFFFFFFF-
  1136 00002AAB FFFFFFFFFFFF727288-
  1136 00002AB4 8888D213FFFFFFFFFF-
  1136 00002ABD FFFFFFFFFFFFFFFFFE-
  1136 00002AC6 FFFFFFFFFFFFFFFFFF-
  1136 00002ACF FFFFFFFFFFFFFFFFFF-
  1136 00002AD8 FFFFFF141715D1D288-
  1136 00002AE1 EA1212D1D1FFFFFFFF-
  1136 00002AEA FFFFFFFFFFFF06FFFF-
  1136 00002AF3 FF72068888EBEAE9FF-
  1136 00002AFC FFFFFFFFFFFFFFFFFF-
  1136 00002B05 FFFFFEFFFFFFFFFFFF-
  1136 00002B0E FFFFFFFFFFFFFFFFFF-
  1136 00002B17 FFFFFFFFFF16081889-
  1136 00002B20 D1FFFFEC131312D0FF-
  1136 00002B29 FFFFFFFFFFFFFFFF2A-
  1136 00002B32 2B42FFD1EA0689EC16-
  1136 00002B3B EB88FF2B2AFFFFFF2A-
  1136 00002B44 2B2AFFFFFFFEFFFFFF-
  1136 00002B4D FFFFFFFFFFFFFFFFFF-
  1136 00002B56 FFFFFFFFFFFFFFFF13-
  1136 00002B5F 14EAE9D1D1FFFF1414-
  1136 00002B68 E889FFFFFFFFFFFFFF-
  1136 00002B71 2B434343430CA1A241-
  1136 00002B7A 0CA2068889FF2B4343-
  1136 00002B83 43424343432AFFFFFE-
  1136 00002B8C FFFFFFFFFFFFFFFFFF-
  1136 00002B95 FFFFFFFFFFFFFFFFFF-
  1136 00002B9E FFFF11121213D2E9D0-
  1136 00002BA7 FFEA16A14343434241-
  1136 00002BB0 42424343434343420C-
  1136 00002BB9 1642424241435A5B43-
  1136 00002BC2 424343434343434343-
  1136 00002BCB 422BFEFFFFFFFFFFFF-
  1136 00002BD4 FFFFFFFFFFFFFFFFFF-
  1136 00002BDD FFFFFFFFFFFF121111-
  1136 00002BE6 121516D1E988EA8942-
  1136 00002BEF 5B1E5A591E5B434343-
  1136 00002BF8 432A4143435B5B445B-
  1136 00002C01 0F5C5C5C434443445C-
  1136 00002C0A 5B5B434242FEFFFFFF-
  1136 00002C13 FFFFFFFFFFFFFFFFFF-
  1136 00002C1C FFFFFFFFFFFFFFFFFF-
  1136 00002C25 FFFF121214A188D12B-
  1136 00002C2E 2A2A420C4141581E5B-
  1136 00002C37 434343430C0C42435C-
  1136 00002C40 5C5C5C0F0F5C5C5C5C-
  1136 00002C49 5C5C5C5B43430E2BFE-
  1136 00002C52 FFFFFFFFFFFFFFFFFF-
  1136 00002C5B FFFFFFFFFFFFFFFFFF-
  1136 00002C64 FFFFFFFFFFFFFF1313-
  1136 00002C6D D1D22B2B424342EC15-
  1136 00002C76 A00C414243435B5B42-
  1136 00002C7F 42435B5C5C5C5B5C5C-
  1136 00002C88 5B445B5B5B5C43432B-
  1136 00002C91 2B2BFEFFFFFFFFFFFF-
  1136 00002C9A FFFFFFFFFFFFFFFFFF-
  1136 00002CA3 FFFFFFFFFFFFFFFFFF-
  1136 00002CAC FFFF11D08841422B41-
  1136 00002CB5 FF89D1D24143434343-
  1136 00002CBE 5B0F0F435B5C5C5C43-
  1136 00002CC7 4343424243435C4343-
  1136 00002CD0 42422B2BFFFEFFFFFF-
  1136 00002CD9 FFFFFFFFFFFFFFFFFF-
  1136 00002CE2 FFFFFFFFFFFFFFFFFF-
  1136 00002CEB FFFFFFFFFFFFFFFFFF-
  1136 00002CF4 FFFFFFFFD011E92A43-
  1136 00002CFD 4343435C5C0F5C5C5C-
  1136 00002D06 5C43432B4242FF2B43-
  1136 00002D0F 43422AFFFFFFFFFFFE-
  1136 00002D18 FFFFFFFFFFFFFFFFFF-
  1136 00002D21 FFFFFFFFFFFFFFFFFF-
  1136 00002D2A FFFFFFFFFFFFFFFFFF-
  1136 00002D33 FFFFFFFFFFFFFFFFFF-
  1136 00002D3C FFFFFF2B435B5C5C5C-
  1136 00002D45 0F5C5C5C4343434343-
  1136 00002D4E 42FF432AFFFFFFFFFF-
  1136 00002D57 FFFFFEFFFFFFFFFFFF-
  1136 00002D60 FFFFFFFFFFFFFFFFFF-
  1136 00002D69 FFFFFFFFFFFFFFFFFF-
  1136 00002D72 FFFFFFFFFFFFFFFFFF-
  1136 00002D7B FFFFFFFFFFFF2A4242-
  1136 00002D84 5C435B5C435C5B4343-
  1136 00002D8D 434342FFFFFFFFFFFF-
  1136 00002D96 FFFFFFFFFFFEFFFFFF-
  1136 00002D9F FFFFFFFFFFFFFFFFFF-
  1136 00002DA8 FFFFFFFFFFFFFFFFFF-
  1136 00002DB1 FFFFFFFFFFFFFFFFFF-
  1136 00002DBA FFFFFFFFFFFFFFFFFF-
  1136 00002DC3 FFFF434343435B4444-
  1136 00002DCC 432B422B41FFFFFFFF-
  1136 00002DD5 FFFFFFFFFFFFFFFFFE-
  1136 00002DDE FFFFFFFFFFFFFFFFFF-
  1136 00002DE7 FFFFFFFFFFFFFFFFFF-
  1136 00002DF0 FFFFFFFFFFFFFFFFFF-
  1136 00002DF9 FFFFFFFFFFFFFFFFFF-
  1136 00002E02 FFFFFFFFFF2B434343-
  1136 00002E0B 5C5C5C4342FFFFFFFF-
  1136 00002E14 FFFFFFFFFFFFFFFFFF-
  1136 00002E1D FFFFFEFFFFFFFFFFFF-
  1136 00002E26 FFFFFFFFFFFFFFFFFF-
  1136 00002E2F FFFFFFFFFFFFFFFFFF-
  1136 00002E38 FFFFFFFFFFFFFFFFFF-
  1136 00002E41 FFFFFFFFFFFFFFFF2A-
  1136 00002E4A 42435C5C5C5C432AFF-
  1136 00002E53 FFFFFFFFFFFFFFFFFF-
  1136 00002E5C FFFFFFFFFFFEFFFFFF-
  1136 00002E65 FFFFFFFFFFFFFFFFFF-
  1136 00002E6E FFFFFFFFFFFFFFFFFF-
  1136 00002E77 FFFFFFFFFFFFFFFFFF-
  1136 00002E80 FFFFFFFFFFFFFFFFFF-
  1136 00002E89 FFFFFF2B2B435C5C5B-
  1136 00002E92 42FFFFFFFFFFFFFFFF-
  1136 00002E9B FFFFFFFFFFFFFFFFFE-
  1136 00002EA4 FFFFFFFFFFFFFFFFFF-
  1136 00002EAD FFFFFFFFFFFFFFFFFF-
  1136 00002EB6 FFFFFFFFFFFFFFFFFF-
  1136 00002EBF FFFFFFFFFFFFFFFFFF-
  1136 00002EC8 FFFFFFFFFFFFFFFF41-
  1136 00002ED1 425B432BFFFFFFFFFF-
  1136 00002EDA FFFFFFFFFFFFFFFFFF-
  1136 00002EE3 FFFFFEFFFFFFFFFFFF-
  1136 00002EEC FFFFFFFFFFFFFFFFFF-
  1136 00002EF5 FFFFFFFFFFFFFFFFFF-
  1136 00002EFE FFFFFFFFFFFFFFFFFF-
  1136 00002F07 FFFFFFFFFFFFFFFFFF-
  1136 00002F10 FFFFFF2B430E2AFFFF-
  1136 00002F19 FFFFFFFFFFFFFFFFFF-
  1136 00002F22 FFFFFFFFFFFEFFFFFF-
  1136 00002F2B FFFFFFFFFFFFFFFFFF-
  1136 00002F34 FFFFFFFFFFFFFFFFFF-
  1136 00002F3D FFFFFFFFFFFFFFFFFF-
  1136 00002F46 FFFFFFFFFFFFFFFFFF-
  1136 00002F4F FFFFFFFFFFFF2A4241-
  1136 00002F58 FFFFFFFFFFFFFFFFFF-
  1136 00002F61 FFFFFFFFFFFFFFFFFE-
  1136 00002F6A FFFFFFFFFFFFFFFFFF-
  1136 00002F73 FFFFFFFFFFFFFFFFFF-
  1136 00002F7C FFFFFFFFFFFFFFFFFF-
  1136 00002F85 FFFFFFFFFFFFFFFFFF-
  1136 00002F8E FFFFFFFFFFFFFFFFFF-
  1136 00002F97 FFFFFFFFFFFFFFFFFF-
  1136 00002FA0 FFFFFFFFFFFFFFFFFF-
  1136 00002FA9 FFFFFEFFFFFFFFFFFF-
  1136 00002FB2 FFFFFFFFFFFFFFFFFF-
  1136 00002FBB FFFFFFFFFFFFFFFFFF-
  1136 00002FC4 FFFFFFFFFFFFFFFFFF-
  1136 00002FCD FFFFFFFFFFFFFFFFFF-
  1136 00002FD6 FFFFFFFFFFFFFFFFFF-
  1136 00002FDF FFFFFFFFFFFFFFFFFF-
  1136 00002FE8 FFFFFFFFFFFEFFFFFF-
  1136 00002FF1 FFFFFFFFFFFFFFFFFF-
  1136 00002FFA FFFFFFFFFFFFFFFFFF-
  1136 00003003 FFFFFFFFFFFFFFFFFF-
  1136 0000300C FFFFFFFFFFFFFFFFFF-
  1136 00003015 FFFFFFFFFFFFFFFFFF-
  1136 0000301E FFFFFFFFFFFFFFFFFF-
  1136 00003027 FFFFFFFFFFFFFFFFFE-
  1136 00003030 00                 
  1137 00003031 FFFFFFFFFFFFFFFFFF-     horse4:db 255,255,255,255,255,255,255,255,255,255,255,255,255,255,255,255,255,255,255,255,255,255,255,255,255,255,255,255,255,255,255,255,255,255,255,255,255,255,255,255,255,255,255,255,255,255,255,255,255,255,255,255,255,255,255,255,255,255,255,255,255,255,255,255,255,254,255,255,255,255,255,255,255,255,255,255,255,255,255,255,255,255,255,255,255,255,255,255,255,255,255,255,255,255,255,255,255,255,255,255,255,255,255,255,255,255,255,255,255,255,255,255,255,255,255,255,255,255,255,255,255,255,255,255,255,255,255,255,255,255,255,254,255,255,255,255,255,255,255,255,255,255,255,255,255,255,255,255,255,255,255,255,255,255,255,255,255,255,255,255,255,255,255,255,255,255,255,255,255,255,255,255,255,255,255,255,255,255,255,255,255,255,255,255,255,255,255,255,255,255,255,255,255,255,255,255,255,254,255,255,255,255,255,255,255,255,255,255,255,255,255,255,255,255,255,255,255,255,255,255,255,255,255,255,255,255,255,255,255,255,255,255,255,255,255,255,255,255,255,255,255,255,255,255,255,255,255,255,255,255,255,255,25...
  1137 0000303A FFFFFFFFFFFFFFFFFF-
  1137 00003043 FFFFFFFFFFFFFFFFFF-
  1137 0000304C FFFFFFFFFFFFFFFFFF-
  1137 00003055 FFFFFFFFFFFFFFFFFF-
  1137 0000305E FFFFFFFFFFFFFFFFFF-
  1137 00003067 FFFFFFFFFFFFFFFFFF-
  1137 00003070 FFFFFEFFFFFFFFFFFF-
  1137 00003079 FFFFFFFFFFFFFFFFFF-
  1137 00003082 FFFFFFFFFFFFFFFFFF-
  1137 0000308B FFFFFFFFFFFFFFFFFF-
  1137 00003094 FFFFFFFFFFFFFFFFFF-
  1137 0000309D FFFFFFFFFFFFFFFFFF-
  1137 000030A6 FFFFFFFFFFFFFFFFFF-
  1137 000030AF FFFFFFFFFFFEFFFFFF-
  1137 000030B8 FFFFFFFFFFFFFFFFFF-
  1137 000030C1 FFFFFFFFFFFFFFFFFF-
  1137 000030CA FFFFFFFFFFFFFFFFFF-
  1137 000030D3 FFFFFFFFFFFFFFFFFF-
  1137 000030DC FFFFFFFFFFFFFFFFFF-
  1137 000030E5 FFFFFFFFFFFFFFFFFF-
  1137 000030EE FFFFFFFFFFFFFFFFFE-
  1137 000030F7 FFFFFFFFFFFFFFFFFF-
  1137 00003100 FFFFFFFFFFFFFFFFFF-
  1137 00003109 FFFFFFFFFFFFFFFFFF-
  1137 00003112 FFFFFFFFFFFFFFFFFF-
  1137 0000311B FFFFFFFFFFFFFFFFFF-
  1137 00003124 FFFFFFFFFFFFFFFFFF-
  1137 0000312D FFFFFFFFFFFFFFFFFF-
  1137 00003136 FFFFFEFFFFFFFFFFFF-
  1137 0000313F FFFFFFFFFFFFFFFFFF-
  1137 00003148 FFFFFFFFFFFFFFFFFF-
  1137 00003151 FFFFFFFFFFFFFFFFFF-
  1137 0000315A FFFFFFFFFFFFFFFFFF-
  1137 00003163 FFFFFFFFFFFFFFFFFF-
  1137 0000316C FFFFFFFFFFFFFFFFFF-
  1137 00003175 FFFFFFFFFFFEFFFFFF-
  1137 0000317E FFFFFFFFFFFFFFFFFF-
  1137 00003187 FFFFFFFFFFFFFFFFFF-
  1137 00003190 FFFFFFFFFFFFFFFFFF-
  1137 00003199 FFFFFFFFFFFFFFFFFF-
  1137 000031A2 FFFFFFFFFFFFFFFFFF-
  1137 000031AB FFFFFFFFFFFFFFFFFF-
  1137 000031B4 FFFFFFFFFFFFFFFFFE-
  1137 000031BD FFFFFFFFFFFFFFFFFF-
  1137 000031C6 FFFFFFFFFFFFFFFFFF-
  1137 000031CF FFFFFFFFFFFFFFFFFF-
  1137 000031D8 FFFFFFFFFFFFFFFFFF-
  1137 000031E1 FFFFFFFFFFFFFFFFFF-
  1137 000031EA FFFFFFFFFFFFFFFFFF-
  1137 000031F3 FFFFFFFFFFFFFFFFFF-
  1137 000031FC FFFFFEFFFFFFFFFFFF-
  1137 00003205 FFFFFFFFFFFFFFFFFF-
  1137 0000320E FFFFFFFFFFFFFFFFFF-
  1137 00003217 FFFF5AFFFFFFFFFFFF-
  1137 00003220 FFFFFFB9FFFFFFFFFF-
  1137 00003229 FFFFFFFFFFFFFFFFFF-
  1137 00003232 FFFFFFFFFFFFFFFFFF-
  1137 0000323B FFFFFFFFFFFEFFFFFF-
  1137 00003244 FFFFFFFFFFFFFFFFFF-
  1137 0000324D FFFFFFFFFFFFFFFFFF-
  1137 00003256 FF2AFFFF2B432B5BFF-
  1137 0000325F FFFFFFBABA72BABAFF-
  1137 00003268 FFFFFFFFFFFFFFFFFF-
  1137 00003271 FFFFFFFFFFFFFFFFFF-
  1137 0000327A FFFFFFFFFFFFFFFFFE-
  1137 00003283 FFFFFFFFFFFFFFFFFF-
  1137 0000328C FFFFFFFFFFFFFFFFFF-
  1137 00003295 FFFFFF2A2A4242435C-
  1137 0000329E 43422A2BFFFFB9BABA-
  1137 000032A7 BAB9BA11FFFFFFFFFF-
  1137 000032B0 FFFFFFFFFFFFFFFFFF-
  1137 000032B9 FFFFFFFFFFFFFFFFFF-
  1137 000032C2 FFFFFEFFFFFFFFFFFF-
  1137 000032CB FFFFFFFFFFFFFFFFFF-
  1137 000032D4 1AA443432A2B422B42-
  1137 000032DD 425C5C5B432BFFFF89-
  1137 000032E6 BAB9B9B911BAB911FF-
  1137 000032EF FFFFFFFFFFFFFFFFFF-
  1137 000032F8 FFFFFFFFFFFFFFFFFF-
  1137 00003301 FFFFFFFFFFFEFFFFFF-
  1137 0000330A FFFFFFFFFFFFFFFFFF-
  1137 00003313 FF2A42414243432B2B-
  1137 0000331C 43435C445C5C432B2B-
  1137 00003325 2BFF72B9B9B9BAD114-
  1137 0000332E D2BAFFFFFFFFFFFFFF-
  1137 00003337 FFFFFFFFFFFFFFFFFF-
  1137 00003340 FFFFFFFFFFFFFFFFFE-
  1137 00003349 FFFFFFFFFFFFFFFFFF-
  1137 00003352 FFFFFF424342414343-
  1137 0000335B 43424243435C5B5C5C-
  1137 00003364 424243432A7171BA88-
  1137 0000336D F3929394FFFFFFFFFF-
  1137 00003376 FFFFFFFFFF595AFFFF-
  1137 0000337F FFFFFFFFFFFFFFFFFF-
  1137 00003388 FFFFFEFFFFFFFFFFFF-
  1137 00003391 FFFFFFFF414243410C-
  1137 0000339A 424241424242434343-
  1137 000033A3 435C5C434343434106-
  1137 000033AC 060619AB9494949495-
  1137 000033B5 FFFFFFFFFFFF425A5A-
  1137 000033BE 5A42FFFFFFFFFFFFFF-
  1137 000033C7 FFFFFFFFFFFEFFFFFF-
  1137 000033D0 FFFFFFFFFFFF2A4241-
  1137 000033D9 190806064042424242-
  1137 000033E2 434343435C5B5B4343-
  1137 000033EB 2B4342422A0C401894-
  1137 000033F4 94034A03FFFFFFFF59-
  1137 000033FD 5A5A5A5A41FFFFFFFF-
  1137 00003406 FFFFFFFFFFFFFFFFFE-
  1137 0000340F FFFFFFFFFFFFFFFF19-
  1137 00003418 404141151515A04143-
  1137 00003421 424243434243435B5C-
  1137 0000342A 5C43430E4243434241-
  1137 00003433 19AC94941A4B4A4AFF-
  1137 0000343C 425A5A5A59425AFFFF-
  1137 00003445 FFFFFFFFFFFFFFFFFF-
  1137 0000344E FFFFFEFFFFFFFFFFFF-
  1137 00003457 FF1818180C0C160815-
  1137 00003460 E98806414141414143-
  1137 00003469 424142434343434342-
  1137 00003472 434240AB1994034A4A-
  1137 0000347B 4A1B5A5A5A4259FFFF-
  1137 00003484 FFFFFFFFFFFFFF2A42-
  1137 0000348D 2A422B422BFEFFFFFF-
  1137 00003496 FFFFFF141819180816-
  1137 0000349F 1515E9121212D1E9EA-
  1137 000034A8 15A140434141404243-
  1137 000034B1 5B43422B424219AC03-
  1137 000034BA AC034A4A1D424141FF-
  1137 000034C3 FFFFFFFFFFFFFFFFFF-
  1137 000034CC 2B2B434343435B43FE-
  1137 000034D5 FFFFFFFFFF14191918-
  1137 000034DE 1514141313D1121212-
  1137 000034E7 121213EA15A1414242-
  1137 000034F0 414342435B432B2B2B-
  1137 000034F9 1E1C4A9303034A1C19-
  1137 00003502 A1E91312FFFFFFFFFF-
  1137 0000350B 4342422B4243434343-
  1137 00003514 5B5BFEFFFFFFFFFF16-
  1137 0000351D 181816131213131212-
  1137 00003526 1212121211121213EA-
  1137 0000352F 151942434342435B43-
  1137 00003538 424342191CACDB944A-
  1137 00003541 4B4A1717A3A2A11488-
  1137 0000354A A32A43422B42424343-
  1137 00003553 4343434343FEFFFFFF-
  1137 0000355C FFFF15151412111212-
  1137 00003565 111212121112121111-
  1137 0000356E 12131315A319401A41-
  1137 00003577 414240435B421C1C15-
  1137 00003580 EBAC1D1D0719191918-
  1137 00003589 18A189064343434242-
  1137 00003592 42435B5B5B434343FE-
  1137 0000359B FFFFFFFF1113131212-
  1137 000035A4 1111FFFFFFFFFF1212-
  1137 000035AD 12111112121315A319-
  1137 000035B6 191A1A1A191A42431B-
  1137 000035BF 1C1A18A3A319071C1A-
  1137 000035C8 19191918081589435B-
  1137 000035D1 434141414343434343-
  1137 000035DA 4342FEFFFFFFFFFF12-
  1137 000035E3 121212FFFFFFFFFFFF-
  1137 000035EC FFFFFF131212121213-
  1137 000035F5 15A319191919181819-
  1137 000035FE 19191A1A18181818A2-
  1137 00003607 8B06A4181708151589-
  1137 00003610 06435C42062A414343-
  1137 00003619 4343422B2BFEFFFFFF-
  1137 00003622 FFFFFF1311FFFFFFFF-
  1137 0000362B FFFFFFFFFFFFFF1412-
  1137 00003634 1212131517191918A3-
  1137 0000363D 1818A318A218191818-
  1137 00003646 170815131289170815-
  1137 0000364F 1413E888424342FF2A-
  1137 00003658 2A2B4343432B2AFFFE-
  1137 00003661 FFFFFFFFFFFFFFFFFF-
  1137 0000366A FFFFFFFFFFFFFFFFFF-
  1137 00003673 FFFF12121214150818-
  1137 0000367C 1808160808160808A3-
  1137 00003685 181708161615131288-
  1137 0000368E 161414131313888889-
  1137 00003697 FFFFFFFFFFFF42FFFF-
  1137 000036A0 FFFFFEFFFFFFFFFFFF-
  1137 000036A9 FFFFFFFFFFFFFFFFFF-
  1137 000036B2 FFFFFFFFFFFF121314-
  1137 000036BB 151515151616161615-
  1137 000036C4 151608A01615151514-
  1137 000036CD 131213131313E91313-
  1137 000036D6 D11313FFFFFFFFFFFF-
  1137 000036DF FFFFFFFFFFFEFFFFFF-
  1137 000036E8 FFFFFFFFFFFFFFFFFF-
  1137 000036F1 FFFFFFFFFFFFFFFFFF-
  1137 000036FA 13131414EBEB151515-
  1137 00003703 15EC141516081615EC-
  1137 0000370C 14131313121214EAEA-
  1137 00003715 1413D2D0D113FFFFFF-
  1137 0000371E FFFFFFFFFFFFFFFFFE-
  1137 00003727 FFFFFFFFFFFFFFFFFF-
  1137 00003730 FFFFFFFFFFFFFFFFFF-
  1137 00003739 FFFFFF1313EBEA1415-
  1137 00003742 15151414131314EB14-
  1137 0000374B 141313121212121214-
  1137 00003754 14EAEAEA13D1D1D113-
  1137 0000375D FFFFFFFFFFFFFFFFFF-
  1137 00003766 FFFFFEFFFFFFFFFFFF-
  1137 0000376F FFFFFFFFFFFFFFFFFF-
  1137 00003778 FFFFFFFFFF11131314-
  1137 00003781 1414EB151513121212-
  1137 0000378A 131313121212121212-
  1137 00003793 1113EB141413131212-
  1137 0000379C D11313FFFFFFFFFFFF-
  1137 000037A5 FFFFFFFFFFFEFFFFFF-
  1137 000037AE FFFFFFFFFFFFFFFFFF-
  1137 000037B7 FFFFFFFFFFFFFFFF12-
  1137 000037C0 121213131414131313-
  1137 000037C9 D0D01212D012D0D0D0-
  1137 000037D2 D0D112111314EA1313-
  1137 000037DB D01212D01315FFFFFF-
  1137 000037E4 FFFFFFFFFFFFFFFFFE-
  1137 000037ED FFFFFFFFFFFFFFFFFF-
  1137 000037F6 FFFFFFFFFFFFFFFFFF-
  1137 000037FF FF1212131212131614-
  1137 00003808 121212D1D1D0121112-
  1137 00003811 D18871D1D1D1D01213-
  1137 0000381A D1121212D088D2D1FF-
  1137 00003823 FFFFFFFFFFFFFFFFFF-
  1137 0000382C FFFFFEFFFFFFFFFFFF-
  1137 00003835 FFFFFFFFFFFFFFFFFF-
  1137 0000383E FFFFFF121212121112-
  1137 00003847 1315141212D0888888-
  1137 00003850 72D18888888988D2D2-
  1137 00003859 1113131212D1888888-
  1137 00003862 D1FFFFFFFFFFFFFFFF-
  1137 0000386B FFFFFFFFFFFEFFFFFF-
  1137 00003874 FFFFFFFFFFFFFFFFFF-
  1137 0000387D FFFFFFFFFFFF121212-
  1137 00003886 1212D0E91313121288-
  1137 0000388F 888888898988890689-
  1137 00003898 888AFF1288EA12D0D1-
  1137 000038A1 8888D1FFFFFFFFFFFF-
  1137 000038AA FFFFFFFFFFFFFFFFFE-
  1137 000038B3 FFFFFFFFFFFFFFFFFF-
  1137 000038BC FFFFFFFFFFFFFFFF13-
  1137 000038C5 121212D0D1D2EA1313-
  1137 000038CE 13D188D1D089888889-
  1137 000038D7 8988FFFFFFFF12EB14-
  1137 000038E0 1312D0D2D1D1FFFFFF-
  1137 000038E9 FFFFFFFFFFFFFFFFFF-
  1137 000038F2 FFFFFEFFFFFFFFFFFF-
  1137 000038FB FFFFFFFFFFFFFFFFFF-
  1137 00003904 FF12131212D0D0D1A3-
  1137 0000390D 141313D1D28AFFFFFF-
  1137 00003916 FFFFFFFFFFFFFFFFFF-
  1137 0000391F 1388E9D1D0D172D012-
  1137 00003928 FFFFFFFFFFFFFFFFFF-
  1137 00003931 FFFFFFFFFFFEFFFFFF-
  1137 0000393A FFFFFFFFFFFFFFFFFF-
  1137 00003943 FFFFFFFF1212D1D0D0-
  1137 0000394C D1FF14141312D18AFF-
  1137 00003955 FFFFFFFFFFFFFFFFFF-
  1137 0000395E FFFFFF068813D1D188-
  1137 00003967 72711212FFFFFFFFFF-
  1137 00003970 FFFFFFFFFFFFFFFFFE-
  1137 00003979 FFFFFFFFFFFFFFFFFF-
  1137 00003982 FFFFFFFFFFFF111211-
  1137 0000398B 12D1FFFFFF14141312-
  1137 00003994 D106FFFFFFFFFFFFFF-
  1137 0000399D FFFFFFFFFFFF0C06D1-
  1137 000039A6 D0D1887171D0D111FF-
  1137 000039AF FFFFFFFFFFFFFFFFFF-
  1137 000039B8 FFFFFEFFFFFFFFFFFF-
  1137 000039C1 FFFFFFFFFFFFFFFFFF-
  1137 000039CA FF12121113FFFFFF15-
  1137 000039D3 15131288FFFFFFFFFF-
  1137 000039DC FFFFFFFFFFFF2A4341-
  1137 000039E5 FF88D11271887272D1-
  1137 000039EE D0BAFFFFFFFF2A2B2B-
  1137 000039F7 2B2AFFFFFFFEFFFFFF-
  1137 00003A00 FFFFFFFFFFFFFFFFFF-
  1137 00003A09 FFFFFFFF1212D1D1FF-
  1137 00003A12 FFFF14081688D111FF-
  1137 00003A1B FFFFFF422B2B2AFF42-
  1137 00003A24 2B5C434189D2D0882A-
  1137 00003A2D 067288D0D0FFFFFF41-
  1137 00003A36 435B434243FFFFFFFE-
  1137 00003A3F FFFFFFFFFFFFFFFFFF-
  1137 00003A48 FFFFFFFFFFFFFF1213-
  1137 00003A51 D111FFFFFF1214E9EA-
  1137 00003A5A 1589A3A30641422B2B-
  1137 00003A63 4343425B5C5C4342A3-
  1137 00003A6C 140C43432A8888D28C-
  1137 00003A75 FF42435C5B432BFFFF-
  1137 00003A7E FFFFFEFFFFFFFFFFFF-
  1137 00003A87 FFFFFFFFFFFFFFFFFF-
  1137 00003A90 FF1415EA16FFFFFF89-
  1137 00003A99 D21212EA1616174143-
  1137 00003AA2 424343435A5A0F1E5C-
  1137 00003AAB 5C4340EB0643434343-
  1137 00003AB4 43422B4143435C4342-
  1137 00003ABD FFFFFFFFFFFEFFFFFF-
  1137 00003AC6 FFFFFFFFFFFFFFFFFF-
  1137 00003ACF FFFFFFFF141688882B-
  1137 00003AD8 43422B4241A02A4342-
  1137 00003AE1 150641434343434243-
  1137 00003AEA 5B1E5B4343420C2A43-
  1137 00003AF3 43434344430E435B5B-
  1137 00003AFC 5B2BFFFFFFFFFFFFFE-
  1137 00003B05 FFFFFFFFFFFFFFFFFF-
  1137 00003B0E FFFFFFFFFFFFFF1313-
  1137 00003B17 D2414343434258571D-
  1137 00003B20 425B5B424243434343-
  1137 00003B29 4342414242422A4243-
  1137 00003B32 43424343434343425B-
  1137 00003B3B 5C5C5C5B2BFFFFFFFF-
  1137 00003B44 FFFFFEFFFFFFFFFFFF-
  1137 00003B4D FFFFFFFFFFFFFFFFFF-
  1137 00003B56 FF1112D1424243425A-
  1137 00003B5F 41561DFF4343430E2B-
  1137 00003B68 2B2B43430C8941422A-
  1137 00003B71 062B434342435B5C5B-
  1137 00003B7A 4343435C445B442BFF-
  1137 00003B83 FFFFFFFFFFFEFFFFFF-
  1137 00003B8C FFFFFFFFFFFFFFFFFF-
  1137 00003B95 FFFFFFFFFFD0D14142-
  1137 00003B9E 43430F41FFFFFF2A43-
  1137 00003BA7 432B42FF2A2B418B0C-
  1137 00003BB0 0E4343432B2B43435C-
  1137 00003BB9 5C5C5C5C5C5B5C4443-
  1137 00003BC2 4242FFFFFFFFFFFFFE-
  1137 00003BCB FFFFFFFFFFFFFFFFFF-
  1137 00003BD4 FFFFFFFFFFFFFFFFFF-
  1137 00003BDD FF2B43435B1E41FFFF-
  1137 00003BE6 FFFF2B2B2AFFFFFFFF-
  1137 00003BEF A442434342435C432B-
  1137 00003BF8 5B435C5C5C5C5C5C5C-
  1137 00003C01 5C5C422AFFFFFFFFFF-
  1137 00003C0A FFFFFEFFFFFFFFFFFF-
  1137 00003C13 FFFFFFFFFFFFFFFFFF-
  1137 00003C1C FFFFFFFFFF2A424242-
  1137 00003C25 FFFFFFFFFFFFFFFFFF-
  1137 00003C2E FFFF40A34042424242-
  1137 00003C37 5A42432B2B43434443-
  1137 00003C40 5B5C5B5C4342FFFFFF-
  1137 00003C49 FFFFFFFFFFFEFFFFFF-
  1137 00003C52 FFFFFFFFFFFFFFFFFF-
  1137 00003C5B FFFFFFFFFFFFFFFFFF-
  1137 00003C64 FFFFFFFFFFFFFFFFFF-
  1137 00003C6D FFFFFFFFFFA1414142-
  1137 00003C76 42424158FFFFFFFF5B-
  1137 00003C7F 2B2A435B43435B2BFF-
  1137 00003C88 FFFFFFFFFFFFFFFFFE-
  1137 00003C91 FFFFFFFFFFFFFFFFFF-
  1137 00003C9A FFFFFFFFFFFFFFFFFF-
  1137 00003CA3 FFFFFFFFFFFFFFFFFF-
  1137 00003CAC FFFFFFFFFFFFFFFF06-
  1137 00003CB5 424343434342FFFFFF-
  1137 00003CBE FFFF2B2B41435B5B5B-
  1137 00003CC7 43FFFFFFFFFFFFFFFF-
  1137 00003CD0 FFFFFEFFFFFFFFFFFF-
  1137 00003CD9 FFFFFFFFFFFFFFFFFF-
  1137 00003CE2 FFFFFFFFFFFFFFFFFF-
  1137 00003CEB FFFFFFFFFFFFFFFFFF-
  1137 00003CF4 FFFFFFFF412B422B2B-
  1137 00003CFD FFFFFFFF2B2B41425B-
  1137 00003D06 5C5B5B42FFFFFFFFFF-
  1137 00003D0F FFFFFFFFFFFEFFFFFF-
  1137 00003D18 FFFFFFFFFFFFFFFFFF-
  1137 00003D21 FFFFFFFFFFFFFFFFFF-
  1137 00003D2A FFFFFFFFFFFFFFFFFF-
  1137 00003D33 FFFFFFFFFFFFFFFFFF-
  1137 00003D3C FFFFFFFFFFFFFF2A41-
  1137 00003D45 424343434342FFFFFF-
  1137 00003D4E FFFFFFFFFFFFFFFFFE-
  1137 00003D57 FFFFFFFFFFFFFFFFFF-
  1137 00003D60 FFFFFFFFFFFFFFFFFF-
  1137 00003D69 FFFFFFFFFFFFFFFFFF-
  1137 00003D72 FFFFFFFFFFFFFFFFFF-
  1137 00003D7B FFFFFFFFFFFFFFFFFF-
  1137 00003D84 FFFF2B434343425BFF-
  1137 00003D8D FFFFFFFFFFFFFFFFFF-
  1137 00003D96 FFFFFEFFFFFFFFFFFF-
  1137 00003D9F FFFFFFFFFFFFFFFFFF-
  1137 00003DA8 FFFFFFFFFFFFFFFFFF-
  1137 00003DB1 FFFFFFFFFFFFFFFFFF-
  1137 00003DBA FFFFFFFFFFFFFFFFFF-
  1137 00003DC3 FFFFFFFFFF2AFFFF2A-
  1137 00003DCC 2AFFFFFFFFFFFFFFFF-
  1137 00003DD5 FFFFFFFFFFFEFFFFFF-
  1137 00003DDE FFFFFFFFFFFFFFFFFF-
  1137 00003DE7 FFFFFFFFFFFFFFFFFF-
  1137 00003DF0 FFFFFFFFFFFFFFFFFF-
  1137 00003DF9 FFFFFFFFFFFFFFFFFF-
  1137 00003E02 FFFFFFFFFFFFFFFFFF-
  1137 00003E0B FFFFFFFFFFFFFFFFFF-
  1137 00003E14 FFFFFFFFFFFFFFFFFE-
  1137 00003E1D FFFFFFFFFFFFFFFFFF-
  1137 00003E26 FFFFFFFFFFFFFFFFFF-
  1137 00003E2F FFFFFFFFFFFFFFFFFF-
  1137 00003E38 FFFFFFFFFFFFFFFFFF-
  1137 00003E41 FFFFFFFFFFFFFFFFFF-
  1137 00003E4A FFFFFFFFFFFFFFFFFF-
  1137 00003E53 FFFFFFFFFFFFFFFFFF-
  1137 00003E5C FFFFFEFFFFFFFFFFFF-
  1137 00003E65 FFFFFFFFFFFFFFFFFF-
  1137 00003E6E FFFFFFFFFFFFFFFFFF-
  1137 00003E77 FFFFFFFFFFFFFFFFFF-
  1137 00003E80 FFFFFFFFFFFFFFFFFF-
  1137 00003E89 FFFFFFFFFFFFFFFFFF-
  1137 00003E92 FFFFFFFFFFFFFFFFFF-
  1137 00003E9B FFFFFFFFFFFEFFFFFF-
  1137 00003EA4 FFFFFFFFFFFFFFFFFF-
  1137 00003EAD FFFFFFFFFFFFFFFFFF-
  1137 00003EB6 FFFFFFFFFFFFFFFFFF-
  1137 00003EBF FFFFFFFFFFFFFFFFFF-
  1137 00003EC8 FFFFFFFFFFFFFFFFFF-
  1137 00003ED1 FFFFFFFFFFFFFFFFFF-
  1137 00003EDA FFFFFFFFFFFFFFFFFE-
  1137 00003EE3 00                 
  1138 00003EE4 FFFFFFFFFFFFFFFFFF-     horse5:db 255,255,255,255,255,255,255,255,255,255,255,255,255,255,255,255,255,255,255,255,255,255,255,255,255,255,255,255,255,255,255,255,255,255,255,255,255,255,255,255,255,255,255,255,255,255,255,255,255,255,255,255,255,255,255,255,255,255,255,255,255,255,255,255,255,254,255,255,255,255,255,255,255,255,255,255,255,255,255,255,255,255,255,255,255,255,255,255,255,255,255,255,255,255,255,255,255,255,255,255,255,255,255,255,255,255,255,255,255,255,255,255,255,255,255,255,255,255,255,255,255,255,255,255,255,255,255,255,255,255,255,254,255,255,255,255,255,255,255,255,255,255,255,255,255,255,255,255,255,255,255,255,255,255,255,255,255,255,255,255,255,255,255,255,255,255,255,255,255,255,255,255,255,255,255,255,255,255,255,255,255,255,255,255,255,255,255,255,255,255,255,255,255,255,255,255,255,254,255,255,255,255,255,255,255,255,255,255,255,255,255,255,255,255,255,255,255,255,255,255,255,255,255,255,255,255,255,255,255,255,255,255,255,255,255,255,255,255,255,255,255,255,255,255,255,255,255,255,255,255,255,255,25...
  1138 00003EED FFFFFFFFFFFFFFFFFF-
  1138 00003EF6 FFFFFFFFFFFFFFFFFF-
  1138 00003EFF FFFFFFFFFFFFFFFFFF-
  1138 00003F08 FFFFFFFFFFFFFFFFFF-
  1138 00003F11 FFFFFFFFFFFFFFFFFF-
  1138 00003F1A FFFFFFFFFFFFFFFFFF-
  1138 00003F23 FFFFFEFFFFFFFFFFFF-
  1138 00003F2C FFFFFFFFFFFFFFFFFF-
  1138 00003F35 FFFFFFFFFFFFFFFFFF-
  1138 00003F3E FFFFFFFFFFFFFFFFFF-
  1138 00003F47 FFFFFFFFFFFFFFFFFF-
  1138 00003F50 FFFFFFFFFFFFFFFFFF-
  1138 00003F59 FFFFFFFFFFFFFFFFFF-
  1138 00003F62 FFFFFFFFFFFEFFFFFF-
  1138 00003F6B FFFFFFFFFFFFFFFFFF-
  1138 00003F74 FFFFFFFFFFFFFFFFFF-
  1138 00003F7D FFFFFFFFFFFFFFFFFF-
  1138 00003F86 FFFFFFFFFFFFFFFFFF-
  1138 00003F8F FFFFFFFFFFFFFFFFFF-
  1138 00003F98 FFFFFFFFFFFFFFFFFF-
  1138 00003FA1 FFFFFFFFFFFFFFFFFE-
  1138 00003FAA FFFFFFFFFFFFFFFFFF-
  1138 00003FB3 FFFFFFFFFFFFFFFFFF-
  1138 00003FBC FFFFFFFFFFFFFFFFFF-
  1138 00003FC5 FFFFFFFFFFFFFFFFFF-
  1138 00003FCE FFFFFFFFFFFFFFFFFF-
  1138 00003FD7 FFFFFFFFFFFFFFFFFF-
  1138 00003FE0 FFFFFFFFFFFFFFFFFF-
  1138 00003FE9 FFFFFEFFFFFFFFFFFF-
  1138 00003FF2 FFFFFFFFFFFFFFFFFF-
  1138 00003FFB FFFFFFFFFFFFFFFFFF-
  1138 00004004 FFFFFFFFFFFFFFFFFF-
  1138 0000400D FFFFFFFFFFFFFFFFFF-
  1138 00004016 FFFFFFFFFFFFFFFFFF-
  1138 0000401F FFFFFFFFFFFFFFFFFF-
  1138 00004028 FFFFFFFFFFFEFFFFFF-
  1138 00004031 FFFFFFFFFFFFFFFFFF-
  1138 0000403A FFFFFFFFFFFFFFFFFF-
  1138 00004043 FFFFFFFFFFFFFFFFFF-
  1138 0000404C FFFFFFFFFFFFFFFFFF-
  1138 00004055 FFFFFFFFFFFFFFFFFF-
  1138 0000405E FFFFFFFFFFFFFFFFFF-
  1138 00004067 FFFFFFFFFFFFFFFFFE-
  1138 00004070 FFFFFFFFFFFFFFFFFF-
  1138 00004079 FFFFFFFFFFFFFFFFFF-
  1138 00004082 FFFFFFFFFFFFFFFFFF-
  1138 0000408B FFFFFFFFFFFFFFFFFF-
  1138 00004094 FFFFFFFFFFFFFFFFFF-
  1138 0000409D FFFFFFFFFFFFFFFFFF-
  1138 000040A6 FFFFFFFFFFFFFFFFFF-
  1138 000040AF FFFFFEFFFFFFFFFFFF-
  1138 000040B8 FFFFFFFFFFFFFFFFFF-
  1138 000040C1 FFFFFFFFFFFFFFFFFF-
  1138 000040CA FFFF2B2B0EFFFFFFFF-
  1138 000040D3 FFFFFFFFFFFFFFFFFF-
  1138 000040DC FFFFFFFFFFFFFFFFFF-
  1138 000040E5 FFFFFFFFFFFFFFFFFF-
  1138 000040EE FFFFFFFFFFFEFFFFFF-
  1138 000040F7 FFFFFFFFFFFFFFFFFF-
  1138 00004100 FFFFFFFFFFFFFFFFFF-
  1138 00004109 FFFFFFFF2B43432BFF-
  1138 00004112 FFFFFFFFFF11FFFFFF-
  1138 0000411B FFFFFFFFFFFFFFFFFF-
  1138 00004124 FFFFFFFFFFFFFFFFFF-
  1138 0000412D FFFFFFFFFFFFFFFFFE-
  1138 00004136 FFFFFFFFFFFFFFFFFF-
  1138 0000413F FFFFFFFFFFFFFFFFFF-
  1138 00004148 FFFFFFFFFFFFFF435C-
  1138 00004151 5C2BFFFFFFFFB97271-
  1138 0000415A BA71FFFFFFFFFFFFFF-
  1138 00004163 FFFFFFFFFFFFFFFFFF-
  1138 0000416C FFFFFFFFFFFFFFFFFF-
  1138 00004175 FFFFFEFFFFFFFFFFFF-
  1138 0000417E FFFFFFFFFFFFFFFFFF-
  1138 00004187 FFFFFFFFFFFFFFFF2A-
  1138 00004190 2B435C5C4242FFFFB9-
  1138 00004199 B9BABABABAFFFFFFFF-
  1138 000041A2 FFFFFFFFFFFFFFFFFF-
  1138 000041AB FFFFFFFFFFFFFFFFFF-
  1138 000041B4 FFFFFFFFFFFEFFFFFF-
  1138 000041BD FFFFFFFFFFFFFFFFFF-
  1138 000041C6 FFFFFFFFFFFFFFFFFF-
  1138 000041CF 2A4243435C5C43422B-
  1138 000041D8 2BFF88BAB9B9B9B9BA-
  1138 000041E1 B911FFFFFFFFFFFFFF-
  1138 000041EA FFFFFFFFFFFFFFFFFF-
  1138 000041F3 FFFFFFFFFFFFFFFFFE-
  1138 000041FC FFFFFFFFFFFFFFFFFF-
  1138 00004205 FFFFFF0642412A2B2B-
  1138 0000420E 2B422B0E4343435C5C-
  1138 00004217 432B2B430671B9B9B9-
  1138 00004220 B9D0D2BA11FFFFFFFF-
  1138 00004229 FFFFFFFFFFFFFFFFFF-
  1138 00004232 FFFFFFFFFFFFFFFFFF-
  1138 0000423B FFFFFEFFFFFFFFFFFF-
  1138 00004244 FFFFFFFFFFFF414342-
  1138 0000424D 424343434343434343-
  1138 00004256 435C5C4342432A06BA-
  1138 0000425F BABAD1EE92931BFFFF-
  1138 00004268 FFFFFFFFFFFFFFFFFF-
  1138 00004271 FFFFFFFFFFFFFFFFFF-
  1138 0000427A FFFFFFFFFFFEFFFFFF-
  1138 00004283 FFFFFFFFFFFF2B2A41-
  1138 0000428C 424242424142434343-
  1138 00004295 434343435C5C5C4343-
  1138 0000429E 417272068B18949494-
  1138 000042A7 9395FFFFFFFFFFFFFF-
  1138 000042B0 1D595A5A59FFFFFFFF-
  1138 000042B9 FFFFFFFFFFFFFFFFFE-
  1138 000042C2 FFFFFFFFFFFFFFFF07-
  1138 000042CB 42424140A442424143-
  1138 000042D4 434342434343435B43-
  1138 000042DD 444342FF4341414119-
  1138 000042E6 A49494949403FFFFFF-
  1138 000042EF FFFF5A5A5A5A5A42FF-
  1138 000042F8 FFFFFFFFFFFFFFFFFF-
  1138 00004301 FFFFFEFFFFFFFFFFFF-
  1138 0000430A FFFF19414117081540-
  1138 00004313 424341414242414243-
  1138 0000431C 43435B434242424343-
  1138 00004325 4342A41AACAC034A4A-
  1138 0000432E 4AFFFF595A5A5A5A42-
  1138 00004337 41FFFFFFFFFFFFFFFF-
  1138 00004340 FFFFFFFFFFFEFFFFFF-
  1138 00004349 FFFFFFCF18A20C2B0C-
  1138 00004352 1716EB060C060C0C41-
  1138 0000435B 401A41434343434343-
  1138 00004364 4343434241A5AC9494-
  1138 0000436D 034A4A4A4A5A5A5A42-
  1138 00004376 4242FFFFFFFFFFFFFF-
  1138 0000437F FFFFFFFFFFFFFFFFFE-
  1138 00004388 FFFFFFFFFFFF191818-
  1138 00004391 A31615161412121212-
  1138 0000439A 13131516A142434242-
  1138 000043A3 42434343432B2B5B19-
  1138 000043AC 92AC1A034A4A4A1D5A-
  1138 000043B5 594241FFFFFFFFFFFF-
  1138 000043BE FFFFFFFFFFFFFFFFFF-
  1138 000043C7 FFFFFEFFFFFFFFFF18-
  1138 000043D0 18180815EC14141312-
  1138 000043D9 12121212121313EB8A-
  1138 000043E2 4142424342425B5B43-
  1138 000043EB 068A06FF1A03940303-
  1138 000043F4 031C411AFFFFFFFFFF-
  1138 000043FD FFFFFFFFFFFFFFFFFF-
  1138 00004406 FFFFFFFFFFFEFFFFFF-
  1138 0000440F FF1519191713131413-
  1138 00004418 12D112121212121112-
  1138 00004421 1213EAA14141414143-
  1138 0000442A 5B434243422A1C4A94-
  1138 00004433 93034A4B071BFFFFFF-
  1138 0000443C FFFFFFFFFFFFFFFFFF-
  1138 00004445 FFFFFFFFFF2A4142FE-
  1138 0000444E FFFFFF141516161312-
  1138 00004457 12121212D012121212-
  1138 00004460 121211121213161841-
  1138 00004469 19191A1A40414343A4-
  1138 00004472 1C1B9293941D1D1CFF-
  1138 0000447B FFFFFFFFFFFFFFFFFF-
  1138 00004484 FFFFFFFFFF2A42422B-
  1138 0000448D 0E43FEFFFFFF151313-
  1138 00004496 13D0121213121211FF-
  1138 0000449F 111112111111121213-
  1138 000044A8 1619191A1A19191919-
  1138 000044B1 4242074A191213EA0C-
  1138 000044BA 4142071815151413EA-
  1138 000044C3 D2FFFFFFFFFF2B0E43-
  1138 000044CC 430E0E0E43FEFFFFFF-
  1138 000044D5 FF12121112F4FFFFFF-
  1138 000044DE FFFFFFFFFFFF111111-
  1138 000044E7 111213161819191918-
  1138 000044F0 1818181918191A9308-
  1138 000044F9 1716EA8906A3A21818-
  1138 00004502 1717081615A02A4243-
  1138 0000450B 4343434343434343FE-
  1138 00004514 FFFFFFFF1111FF11FF-
  1138 0000451D FFFFFFFFFFFFFFFFFF-
  1138 00004526 FFFF1112D1EB081819-
  1138 0000452F 18A3A318A317A2A318-
  1138 00004538 18081717171613D1A1-
  1138 00004541 191919191818171689-
  1138 0000454A 0C4243424243434343-
  1138 00004553 4343FEFFFFFFFFFFFF-
  1138 0000455C FFFFFFFFFFFFFFFFFF-
  1138 00004565 FFFFFFFFFF11121315-
  1138 0000456E 1608A1081616161616-
  1138 00004577 A1A217181817171708-
  1138 00004580 EB1316191919191918-
  1138 00004589 17088A0C4142414142-
  1138 00004592 4343434242FEFFFFFF-
  1138 0000459B FFFFFFFFFFFFFFFFFF-
  1138 000045A4 FFFFFFFFFFFFFFFF11-
  1138 000045AD 141415151515151516-
  1138 000045B6 151515160817171708-
  1138 000045BF 161616151415171717-
  1138 000045C8 17A2081615898B435B-
  1138 000045D1 434343434343422AFE-
  1138 000045DA FFFFFFFFFFFFFFFFFF-
  1138 000045E3 FFFFFFFFFFFFFFFFFF-
  1138 000045EC FFFF11121415151516-
  1138 000045F5 151515141415160816-
  1138 000045FE 161515151515151413-
  1138 00004607 15160808161514EAEA-
  1138 00004610 89425C5B42422A2B2B-
  1138 00004619 2A0CFEFFFFFFFFFFFF-
  1138 00004622 FFFFFFFFFFFFFFFFFF-
  1138 0000462B FFFFFFFFFF12121414-
  1138 00004634 151516151413131314-
  1138 0000463D 151515151515151514-
  1138 00004646 141413141515151414-
  1138 0000464F 1313E9890C422AFFFF-
  1138 00004658 FFFFFFFFFFFEFFFFFF-
  1138 00004661 FFFFFFFFFFFFFFFFFF-
  1138 0000466A FFFFFFFFFFFFFF1412-
  1138 00004673 13E9EA161515141312-
  1138 0000467C 12121313EA14141413-
  1138 00004685 141313131313141414-
  1138 0000468E 141413131313D1888C-
  1138 00004697 FFFFFFFFFFFFFFFFFE-
  1138 000046A0 FFFFFFFFFFFFFFFFFF-
  1138 000046A9 FFFFFFFFFFFFFFFFFF-
  1138 000046B2 13131312EAA0171513-
  1138 000046BB 131212121212121313-
  1138 000046C4 D11312121212121212-
  1138 000046CD 131414141313131312-
  1138 000046D6 D1D1D0FFFFFFFFFFFF-
  1138 000046DF FFFFFEFFFFFFFFFFFF-
  1138 000046E8 FFFFFFFFFFFFFFFFFF-
  1138 000046F1 FFFF1312121212EA15-
  1138 000046FA 15EA121212D1D2D0D1-
  1138 00004703 D01212D0D012121212-
  1138 0000470C 121211121414141313-
  1138 00004715 1313D1D0D1D011FFFF-
  1138 0000471E FFFFFFFFFFFEFFFFFF-
  1138 00004727 FFFFFFFFFFFFFFFFFF-
  1138 00004730 FFFFFF131312121212-
  1138 00004739 E9151514131212D188-
  1138 00004742 88D1D1D1D1D1D1D1D0-
  1138 0000474B D0121112121212EBEB-
  1138 00004754 1413131313D112D1D0-
  1138 0000475D 12FFFFFFFFFFFFFFFE-
  1138 00004766 FFFFFFFFFFFFFFFFFF-
  1138 0000476F FFFFFFFFFF11121312-
  1138 00004778 12D0D215151413D1D2-
  1138 00004781 888889898888898888-
  1138 0000478A 888888D1D1D1D1D0D0-
  1138 00004793 D1EA14141313121212-
  1138 0000479C 12D1D1FFFFFFFFFFFF-
  1138 000047A5 FFFFFEFFFFFFFFFFFF-
  1138 000047AE FFFFFFFFFFFFFFFF12-
  1138 000047B7 121212D088A015E913-
  1138 000047C0 D1D288898889A3A28A-
  1138 000047C9 898988888888D2EA88-
  1138 000047D2 E9D0D0D11313131212-
  1138 000047DB 1212121212D2FFFFFF-
  1138 000047E4 FFFFFFFFFFFEFFFFFF-
  1138 000047ED FFFFFFFFFFFFFFFFFF-
  1138 000047F6 FF131212D0D1A21817-
  1138 000047FF E9D1D0D206FFFFFFFF-
  1138 00004808 FFFFFFFFFFA38888EA-
  1138 00004811 88888AFFB912EAE912-
  1138 0000481A 121212D0D0D01212D1-
  1138 00004823 FFFFFFFFFFFFFFFFFE-
  1138 0000482C FFFFFFFFFFFFFFFFFF-
  1138 00004835 FFFFFF111313D0D189-
  1138 0000483E 1617EB12D011FFFFFF-
  1138 00004847 FFFFFFFFFFFFFFFFFF-
  1138 00004850 FFFFFFFFFFFFFFFF15-
  1138 00004859 15141212D0D0D0D0D0-
  1138 00004862 1212E9FFFFFFFFFFFF-
  1138 0000486B FFFFFEFFFFFFFFFFFF-
  1138 00004874 FFFFFFFFFFFF1515D1-
  1138 0000487D D006E7EBE9D1D0FFFF-
  1138 00004886 FFFFFFFFFFFFFFFFFF-
  1138 0000488F FFFFFFFFFFFFFFFFFF-
  1138 00004898 FFD18915151312D0D0-
  1138 000048A1 D0D0D0D0121212FFFF-
  1138 000048AA FFFFFFFFFFFEFFFFFF-
  1138 000048B3 FFFFFFFFFFFFFFE608-
  1138 000048BC A2EAD0B9FFFF131212-
  1138 000048C5 12FFFFFFFFFFFFFFFF-
  1138 000048CE FFFFFFFFFFFFFFFFFF-
  1138 000048D7 FFFFFFFF4206EB8A06-
  1138 000048E0 D1D1D1D0D0D0D01212-
  1138 000048E9 D0EAFFFFFFFFFFFFFE-
  1138 000048F2 FFFFFFFFFFFFFFFFFF-
  1138 000048FB FF140815D1B8FFFFFF-
  1138 00004904 1413D0D0FFFFFFFFFF-
  1138 0000490D FFFFFFFF43FF2A422A-
  1138 00004916 FFFFFFFFFFFFFF2B41-
  1138 0000491F EA2A422A2A0688D1D1-
  1138 00004928 D01212D1E988D2FFFF-
  1138 00004931 FFFFFEFFFFFFFFFFFF-
  1138 0000493A FFFFFFFF13892A2AFF-
  1138 00004943 FFFFFF1514EAA4FFFF-
  1138 0000494C FFFFFFFFFFFF2A2B2B-
  1138 00004955 434342FFFFFFFFFFFF-
  1138 0000495E FF4243412A4343432B-
  1138 00004967 0688D2D1D1D1D1E9EA-
  1138 00004970 EAEBFFFFFFFEFFFFFF-
  1138 00004979 FFFFFFFFFFFFFFA042-
  1138 00004982 4343422B432A8BEB41-
  1138 0000498B 42412CFFFFFFFFFF2B-
  1138 00004994 0E43445C5C4341FFFF-
  1138 0000499D FFFFFFFF2B432A2A43-
  1138 000049A6 5B43410CFF88E8D0D1-
  1138 000049AF 8888E91313FFFFFFFE-
  1138 000049B8 FFFFFFFFFFFFFFFFFF-
  1138 000049C1 FF0C434343432B4243-
  1138 000049CA 59A14243432B2B2A2A-
  1138 000049D3 422B0E2B425B5C5C44-
  1138 000049DC 43FFFFFFFFFFFF0C0C-
  1138 000049E5 EA06424241FFFFFFFF-
  1138 000049EE FF11D088D288E814FF-
  1138 000049F7 FFFFFEFFFFFFFFFFFF-
  1138 00004A00 FFFFFFFF4142424343-
  1138 00004A09 425A1E5989425B5C43-
  1138 00004A12 432B2B2B430E2B2B5B-
  1138 00004A1B 5C5C0E2BFFFFFFFFFF-
  1138 00004A24 FFA008EA8889FFFF2A-
  1138 00004A2D 2B2B2AFFFFFFFFD1D1-
  1138 00004A36 D11313FFFFFEFFFFFF-
  1138 00004A3F FFFFFFFFFFFF720C43-
  1138 00004A48 434342415757424343-
  1138 00004A51 43435B5A42422B432B-
  1138 00004A5A 432B445B432B2BFFFF-
  1138 00004A63 FFFFFF168A16EA892A-
  1138 00004A6C 2B2B435B432BFFFFFF-
  1138 00004A75 FF0689881314FFFFFE-
  1138 00004A7E FFFFFFFFFFFFFFFFFF-
  1138 00004A87 FF2A42432B42FFFFFF-
  1138 00004A90 2B434341425B0F58FF-
  1138 00004A99 42432BFF43435B432B-
  1138 00004AA2 FFFFFFFFFFFFA3A0EA-
  1138 00004AAB D1892B43434343422A-
  1138 00004AB4 FFFFFFFFFF8BD2D1E8-
  1138 00004ABD 89FFFEFFFFFFFFFFFF-
  1138 00004AC6 FFFFFFFFFF422AFFFF-
  1138 00004ACF FFFFFF2A434341431E-
  1138 00004AD8 1EFFFF422B42FFFF42-
  1138 00004AE1 5B43FFFFFFFFFFFFA2-
  1138 00004AEA A3062A062A43434344-
  1138 00004AF3 2B5BFFFFFFFFFF2A2B-
  1138 00004AFC 2A88E9412AFEFFFFFF-
  1138 00004B05 FFFFFFFFFFFFFFFFFF-
  1138 00004B0E FFFFFFFFFFFFFF412B-
  1138 00004B17 42435B42FFFF2B2BFF-
  1138 00004B20 FFFF2B42FFFFFFFFFF-
  1138 00004B29 A4A4A34343422B2B43-
  1138 00004B32 435C4442FFFFFFFFFF-
  1138 00004B3B FF2B432B0CA04343FE-
  1138 00004B44 FFFFFFFFFFFFFFFFFF-
  1138 00004B4D FFFFFFFFFFFFFFFFFF-
  1138 00004B56 FFFFFF2A432BFFFFFF-
  1138 00004B5F FFFFFFFFFFFFFFFFFF-
  1138 00004B68 FFFF1942420C434343-
  1138 00004B71 41FF2A4343432AFFFF-
  1138 00004B7A FFFFFF2B434343430C-
  1138 00004B83 4243FEFFFFFFFFFFFF-
  1138 00004B8C FFFFFFFFFFFFFFFFFF-
  1138 00004B95 FFFFFFFFFFFFFFFFFF-
  1138 00004B9E FFFFFFFFFFFFFFFFFF-
  1138 00004BA7 FFFFFFFFA242434343-
  1138 00004BB0 435B422AFFFFFF2A0F-
  1138 00004BB9 FFFFFFFFFFFF434343-
  1138 00004BC2 5C5B414343FEFFFFFF-
  1138 00004BCB FFFFFFFFFFFFFFFFFF-
  1138 00004BD4 FFFFFFFFFFFFFFFFFF-
  1138 00004BDD FFFFFFFFFFFFFFFFFF-
  1138 00004BE6 FFFFFFFFFFFF074042-
  1138 00004BEF 4342435B430FFFFFFF-
  1138 00004BF8 FFFFFFFFFFFFFFFF42-
  1138 00004C01 435C5C5C4341435BFE-
  1138 00004C0A FFFFFFFFFFFFFFFFFF-
  1138 00004C13 FFFFFFFFFFFFFFFFFF-
  1138 00004C1C FFFFFFFFFFFFFFFFFF-
  1138 00004C25 FFFFFFFFFFFFFFFF2B-
  1138 00004C2E 414243434343432BFF-
  1138 00004C37 FFFFFFFFFFFFFFFFFF-
  1138 00004C40 FFFF2A445B435C4242-
  1138 00004C49 425AFEFFFFFFFFFFFF-
  1138 00004C52 FFFFFFFFFFFFFFFFFF-
  1138 00004C5B FFFFFFFFFFFFFFFFFF-
  1138 00004C64 FFFFFFFFFFFFFFFFFF-
  1138 00004C6D FF1A42434243434343-
  1138 00004C76 432AFFFFFFFFFFFFFF-
  1138 00004C7F FFFFFFFFFF5B434343-
  1138 00004C88 434341425BFEFFFFFF-
  1138 00004C91 FFFFFFFFFFFFFFFFFF-
  1138 00004C9A FFFFFFFFFFFFFFFFFF-
  1138 00004CA3 FFFFFFFFFFFFFFFFFF-
  1138 00004CAC FFFFFFFFA20C414143-
  1138 00004CB5 43434342FFFFFFFFFF-
  1138 00004CBE FFFFFFFFFFFFFFFFFF-
  1138 00004CC7 5B42422B2A2B4241FE-
  1138 00004CD0 FFFFFFFFFFFFFFFFFF-
  1138 00004CD9 FFFFFFFFFFFFFFFFFF-
  1138 00004CE2 FFFFFFFFFFFFFFFFFF-
  1138 00004CEB FFFFFFFFFFFFFFFFFF-
  1138 00004CF4 FF2A2A2B2B2AFFFFFF-
  1138 00004CFD FFFFFFFFFFFFFFFFFF-
  1138 00004D06 FFFFFFFFFFFFFFFFFF-
  1138 00004D0F FFFFFEFFFFFFFFFFFF-
  1138 00004D18 FFFFFFFFFFFFFFFFFF-
  1138 00004D21 FFFFFFFFFFFFFFFFFF-
  1138 00004D2A FFFFFFFFFFFFFFFFFF-
  1138 00004D33 FFFFFFFFFFFFFFFFFF-
  1138 00004D3C FFFFFFFFFFFFFFFFFF-
  1138 00004D45 FFFFFFFFFFFFFFFFFF-
  1138 00004D4E FFFFFFFFFFFEFFFFFF-
  1138 00004D57 FFFFFFFFFFFFFFFFFF-
  1138 00004D60 FFFFFFFFFFFFFFFFFF-
  1138 00004D69 FFFFFFFFFFFFFFFFFF-
  1138 00004D72 FFFFFFFFFFFFFFFFFF-
  1138 00004D7B FFFFFFFFFFFFFFFFFF-
  1138 00004D84 FFFFFFFFFFFFFFFFFF-
  1138 00004D8D FFFFFFFFFFFFFFFFFE-
  1138 00004D96 00                 
  1139 00004D97 FFFFFFFFFFFFFFFFFF-     horse6:db 255,255,255,255,255,255,255,255,255,255,255,255,255,255,255,255,255,255,255,255,255,255,255,255,255,255,255,255,255,255,255,255,255,255,255,255,255,255,255,255,255,255,255,255,255,255,255,255,255,255,255,255,255,255,255,255,255,255,255,255,255,255,255,255,255,254,255,255,255,255,255,255,255,255,255,255,255,255,255,255,255,255,255,255,255,255,255,255,255,255,255,255,255,255,255,255,255,255,255,255,255,255,255,255,255,255,255,255,255,255,255,255,255,255,255,255,255,255,255,255,255,255,255,255,255,255,255,255,255,255,255,254,255,255,255,255,255,255,255,255,255,255,255,255,255,255,255,255,255,255,255,255,255,255,255,255,255,255,255,255,255,255,255,255,255,255,255,255,255,255,255,255,255,255,255,255,255,255,255,255,255,255,255,255,255,255,255,255,255,255,255,255,255,255,255,255,255,254,255,255,255,255,255,255,255,255,255,255,255,255,255,255,255,255,255,255,255,255,255,255,255,255,255,255,255,255,255,255,255,255,255,255,255,255,255,255,255,255,255,255,255,255,255,255,255,255,255,255,255,255,255,255,25...
  1139 00004DA0 FFFFFFFFFFFFFFFFFF-
  1139 00004DA9 FFFFFFFFFFFFFFFFFF-
  1139 00004DB2 FFFFFFFFFFFFFFFFFF-
  1139 00004DBB FFFFFFFFFFFFFFFFFF-
  1139 00004DC4 FFFFFFFFFFFFFFFFFF-
  1139 00004DCD FFFFFFFFFFFFFFFFFF-
  1139 00004DD6 FFFFFEFFFFFFFFFFFF-
  1139 00004DDF FFFFFFFFFFFFFFFFFF-
  1139 00004DE8 FFFFFFFFFFFFFFFFFF-
  1139 00004DF1 FFFFFFFFFFFFFFFFFF-
  1139 00004DFA FFFFFFFFFFFFFFFFFF-
  1139 00004E03 FFFFFFFFFFFFFFFFFF-
  1139 00004E0C FFFFFFFFFFFFFFFFFF-
  1139 00004E15 FFFFFFFFFFFEFFFFFF-
  1139 00004E1E FFFFFFFFFFFFFFFFFF-
  1139 00004E27 FFFFFFFFFFFFFFFFFF-
  1139 00004E30 FFFFFFFFFFFFFFFFFF-
  1139 00004E39 FFFFFFFFFFFFFFFFFF-
  1139 00004E42 FFFFFFFFFFFFFFFFFF-
  1139 00004E4B FFFFFFFFFFFFFFFFFF-
  1139 00004E54 FFFFFFFFFFFFFFFFFE-
  1139 00004E5D FFFFFFFFFFFFFFFFFF-
  1139 00004E66 FFFFFFFFFFFFFFFFFF-
  1139 00004E6F FFFFFFFFFFFFFFFFFF-
  1139 00004E78 FFFFFFFFFFFFFFFFFF-
  1139 00004E81 FFFFFFFFFFFFFFFFFF-
  1139 00004E8A FFFFFFFFFFFFFFFFFF-
  1139 00004E93 FFFFFFFFFFFFFFFFFF-
  1139 00004E9C FFFFFEFFFFFFFFFFFF-
  1139 00004EA5 FFFFFFFFFFFFFFFFFF-
  1139 00004EAE FFFFFFFFFFFFFFFFFF-
  1139 00004EB7 FFFFFFFFFFFFFFFFFF-
  1139 00004EC0 FFFFFFFFFFFFFFFFFF-
  1139 00004EC9 FFFFFFFFFFFFFFFFFF-
  1139 00004ED2 FFFFFFFFFFFFFFFFFF-
  1139 00004EDB FFFFFFFFFFFEFFFFFF-
  1139 00004EE4 FFFFFFFFFFFFFFFFFF-
  1139 00004EED FFFFFFFFFFFFFFFFFF-
  1139 00004EF6 FFFFFFFFFFFFFFFFFF-
  1139 00004EFF FFFFFFFFFFFFFFFFFF-
  1139 00004F08 FFFFFFFFFFFFFFFFFF-
  1139 00004F11 FFFFFFFFFFFFFFFFFF-
  1139 00004F1A FFFFFFFFFFFFFFFFFE-
  1139 00004F23 FFFFFFFFFFFFFFFFFF-
  1139 00004F2C FFFFFFFFFFFFFFFFFF-
  1139 00004F35 FFFFFFFFFFFFFFFFFF-
  1139 00004F3E FFFFFFFFFFFFFFFFFF-
  1139 00004F47 FFFFFFFFFFFFFFFFFF-
  1139 00004F50 FFFFFFFFFFFFFFFFFF-
  1139 00004F59 FFFFFFFFFFFFFFFFFF-
  1139 00004F62 FFFFFEFFFFFFFFFFFF-
  1139 00004F6B FFFFFFFFFFFFFFFFFF-
  1139 00004F74 FFFFFFFFFFFFFFFFFF-
  1139 00004F7D FFFFFFFFFFFFFFFFFF-
  1139 00004F86 FFFFFFFFFFFFFFFFFF-
  1139 00004F8F FFFFFFFFFFFFFFFFFF-
  1139 00004F98 FFFFFFFFFFFFFFFFFF-
  1139 00004FA1 FFFFFFFFFFFEFFFFFF-
  1139 00004FAA FFFFFFFFFFFFFFFFFF-
  1139 00004FB3 FFFFFFFFFFFFFFFFFF-
  1139 00004FBC FFFFFFFFFFFFFFFFFF-
  1139 00004FC5 FFFFFFFFFFFFFFFFFF-
  1139 00004FCE FFFFFFFFFFFFFFFFFF-
  1139 00004FD7 FFFFFFFFFFFFFFFFFF-
  1139 00004FE0 FFFFFFFFFFFFFFFFFE-
  1139 00004FE9 FFFFFFFFFFFFFFFFFF-
  1139 00004FF2 FFFFFFFFFFFFFFFFFF-
  1139 00004FFB FFFFFFFF5B060F42FF-
  1139 00005004 FFFFFFFFFFFFFFFFFF-
  1139 0000500D FFFFFFFFFFFFFFFFFF-
  1139 00005016 FFFFFFFFFFFFFFFFFF-
  1139 0000501F FFFFFFFFFFFFFFFFFF-
  1139 00005028 FFFFFEFFFFFFFFFFFF-
  1139 00005031 FFFFFFFFFFFFFFFFFF-
  1139 0000503A FFFFFFFFFFFFFF4243-
  1139 00005043 5B0E415C2AFFFFFF72-
  1139 0000504C BAB9FFFFFFFFFFFFFF-
  1139 00005055 FFFFFFFFFFFFFFFFFF-
  1139 0000505E FFFFFFFFFFFFFFFFFF-
  1139 00005067 FFFFFFFFFFFEFFFFFF-
  1139 00005070 FFFFFFFFFFFFFFFFFF-
  1139 00005079 FFFFFFFFFFFFFFFFFF-
  1139 00005082 FF425C5C4343432A2A-
  1139 0000508B 06BA71BABA73FFFFFF-
  1139 00005094 FFFFFFFFFFFFFFFFFF-
  1139 0000509D FFFFFFFFFFFFFFFFFF-
  1139 000050A6 FFFFFFFFFFFFFFFFFE-
  1139 000050AF FFFFFFFFFFFFFFFFFF-
  1139 000050B8 FFFFFFFFFFFFFFFFFF-
  1139 000050C1 FFFFFF2B435C5B2B42-
  1139 000050CA 2A2B4271B9BABAB9BA-
  1139 000050D3 BAB9FFFFFFFFFFFFFF-
  1139 000050DC FFFFFFFFFFFFFFFFFF-
  1139 000050E5 FFFFFFFFFFFFFFFFFF-
  1139 000050EE FFFFFEFFFFFFFFFFFF-
  1139 000050F7 FFFFFFFFFFFFFFFFFF-
  1139 00005100 FFFFFFFFFF2A43445C-
  1139 00005109 43422B410F2A71B9B9-
  1139 00005112 B9B9BABA11FFFFFFFF-
  1139 0000511B FFFFFFFFFFFFFFFFFF-
  1139 00005124 FFFFFFFFFFFFFFFFFF-
  1139 0000512D FFFFFFFFFFFEFFFFFF-
  1139 00005136 FFFFFFFFFFFFFFFFFF-
  1139 0000513F FFFFFFFFFFFFFF4243-
  1139 00005148 5B5B5C5C434342432B-
  1139 00005151 06B9BAD1EE9119FFFF-
  1139 0000515A FFFFFFFFFFFFFFFFFF-
  1139 00005163 FFFFFFFFFFFFFFFFFF-
  1139 0000516C FFFFFFFFFFFFFFFFFE-
  1139 00005175 FFFFFFFFFFFFFFFFFF-
  1139 0000517E FFFFFFFFFFFFFF2A42-
  1139 00005187 4243435B5C5C5C5C5B-
  1139 00005190 43434206888A939494-
  1139 00005199 9494FFFFFFFFFFFFFF-
  1139 000051A2 FF4259425AFFFFFFFF-
  1139 000051AB FFFFFFFFFFFFFFFFFF-
  1139 000051B4 FFFFFEFFFFFFFFFFFF-
  1139 000051BD FFFFFFFFFFFF412B42-
  1139 000051C6 4243434343435C5C5C-
  1139 000051CF 5C5C5C434342412AA4-
  1139 000051D8 A4AA9494031AFFFFFF-
  1139 000051E1 FFFF5A5A5A5A5A42FF-
  1139 000051EA FFFFFFFFFFFFFFFFFF-
  1139 000051F3 FFFFFFFFFFFEFFFFFF-
  1139 000051FC FFFFFFFFFFFF5B2A42-
  1139 00005205 434343434343434343-
  1139 0000520E 5C5C5C5C5C5B434243-
  1139 00005217 434241A4189494034A-
  1139 00005220 4AFFFFFF425A5A5A42-
  1139 00005229 428CFFFFFFFFFFFFFF-
  1139 00005232 FFFFFFFFFFFFFFFFFE-
  1139 0000523B FFFFFFFFFFFFFFFF41-
  1139 00005244 424343414243434343-
  1139 0000524D 43434343435B5B435B-
  1139 00005256 5C430E43421919AC94-
  1139 0000525F 944A4A4A035A5A5A5A-
  1139 00005268 5A4241FFFFFFFFFFFF-
  1139 00005271 FFFFFFFFFFFFFFFFFF-
  1139 0000527A FFFFFEFFFFFFFFFFFF-
  1139 00005283 2A41414141A40C4042-
  1139 0000528C 434140424343434343-
  1139 00005295 43435B5C5B425CFF1B-
  1139 0000529E AA1A1B1A034A4A075A-
  1139 000052A7 5A4242FFFFFFFFFFFF-
  1139 000052B0 FFFFFFFFFFFFFFFFFF-
  1139 000052B9 FFFFFFFFFFFEFFFFFF-
  1139 000052C2 FFD019A44141A31515-
  1139 000052CB 894142424142424042-
  1139 000052D4 434141434343435B43-
  1139 000052DD 4241A4AC1A1CAC0303-
  1139 000052E6 4A1C424006FFFFFFFF-
  1139 000052EF FFFFFFFFFFFFFFFFFF-
  1139 000052F8 FFFFFFFFFFFFFFFFFE-
  1139 00005301 FFFFFFFF18191A4041-
  1139 0000530A 0C0815150C4140060C-
  1139 00005313 A1A140424343434343-
  1139 0000531C 434343432A89174A4A-
  1139 00005325 AC94034A4A1AFFFFFF-
  1139 0000532E 13FF13141313FFFFFF-
  1139 00005337 FFFFFFFFFFFFFFFFFF-
  1139 00005340 FFFFFEFFFFFF181A19-
  1139 00005349 19A3161516EA13D112-
  1139 00005352 12121213EAEC164142-
  1139 0000535B 414343424242424341-
  1139 00005364 1A6294F4A9071D1D1C-
  1139 0000536D 171616151516081717-
  1139 00005376 0815A21AFF2B2B2B2B-
  1139 0000537F 2B2B422B2BFEFFFF17-
  1139 00005388 191A181514EC141312-
  1139 00005391 121212121212121212-
  1139 0000539A 13EA08184142411941-
  1139 000053A3 4243421C4AAA151718-
  1139 000053AC A48C41A3A318181919-
  1139 000053B5 19191918A308A04143-
  1139 000053BE 4343434343434343FE-
  1139 000053C7 FF1515180815121314-
  1139 000053D0 131212121212121212-
  1139 000053D9 111212121316191919-
  1139 000053E2 1A1A19191A191A1A19-
  1139 000053EB 191919188906A41918-
  1139 000053F4 1919191919191918A0-
  1139 000053FD 890C41424142424343-
  1139 00005406 4342FEFF151415D2D1-
  1139 0000540F 11D11212D1D1D01212-
  1139 00005418 121211111112121315-
  1139 00005421 181919191918181919-
  1139 0000542A 191919191919180815-
  1139 00005433 081818191918181818-
  1139 0000543C 171689898941432B42-
  1139 00005445 4343434342FEFF1412-
  1139 0000544E 1212D012891212D1D1-
  1139 00005457 12D1D0D1D1D0121211-
  1139 00005460 1213ECA21919181818-
  1139 00005469 1818A3A31818191819-
  1139 00005472 181817080808081708-
  1139 0000547B 0808161514EAEA890C-
  1139 00005484 422B2B2B4243422AFE-
  1139 0000548D FFFF111211FFFFFFFF-
  1139 00005496 FFFFFFFFFFFFFFFFD1-
  1139 0000549F D1D11212E915081818-
  1139 000054A8 1708A2A208080808A3-
  1139 000054B1 181818181708161615-
  1139 000054BA EC1515161515141414-
  1139 000054C3 EA898989FFFFFFFF2A-
  1139 000054CC 2A2AFEFFFFFFFFFFFF-
  1139 000054D5 FFFFFFFFFFFFFFFFFF-
  1139 000054DE FFFFFFFFD212121315-
  1139 000054E7 16A1A1161616151515-
  1139 000054F0 161616161616161616-
  1139 000054F9 151514141414EC1414-
  1139 00005502 141414EA88898812FF-
  1139 0000550B FFFFFFFFFFFEFFFFFF-
  1139 00005514 FFFFFFFFFFFFFFFFFF-
  1139 0000551D FFFFFFFFFFFFFFFFE8-
  1139 00005526 1213EB14EA15161616-
  1139 0000552F 151515161616151515-
  1139 00005538 1515EC141413131414-
  1139 00005541 1414131414EBEAEAEA-
  1139 0000554A 8812FFFFFFFFFFFFFE-
  1139 00005553 FFFFFFFFFFFFFFFFFF-
  1139 0000555C FFFFFFFFFFFFFFFFFF-
  1139 00005565 FFFFFF141414141415-
  1139 0000556E 15ECEB1414EB151515-
  1139 00005577 EB1414141313131313-
  1139 00005580 131313131413141414-
  1139 00005589 EAEAE8E81212FFFFFF-
  1139 00005592 FFFFFEFFFFFFFFFFFF-
  1139 0000559B FFFFFFFFFFFFFFFFFF-
  1139 000055A4 FFFFFFFFFFFF1414EA-
  1139 000055AD 141415151413121213-
  1139 000055B6 131313131313131212-
  1139 000055BF 121212121212131313-
  1139 000055C8 14141413D1D1D1D0D1-
  1139 000055D1 FFFFFFFFFFFEFFFFFF-
  1139 000055DA FFFFFFFFFFFFFFFFFF-
  1139 000055E3 FFFFFFFFFFFFFFFFFF-
  1139 000055EC 1514EA151514141312-
  1139 000055F5 121212121212121212-
  1139 000055FE 121212121212121212-
  1139 00005607 131313131313D1D0D0-
  1139 00005610 D112FFFFFFFFFFFFFE-
  1139 00005619 FFFFFFFFFFFFFFFFFF-
  1139 00005622 FFFFFFFFFFFFFFFFFF-
  1139 0000562B FFFFFF1817A1171512-
  1139 00005634 121212D0D0D1D1D1D1-
  1139 0000563D D012121212D012D1D1-
  1139 00005646 D1D0D0D1E913131312-
  1139 0000564F 12D0D2D0121212FFFF-
  1139 00005658 FFFFFEFFFFFFFFFFFF-
  1139 00005661 FFFFFFFFFFFFFFFFFF-
  1139 0000566A FFFFFFFFFF18181708-
  1139 00005673 161312D0D0D1D1D1D1-
  1139 0000567C D1D1D1D0D0D0D1D1D0-
  1139 00005685 12D1EAD1D0D0D2D113-
  1139 0000568E 121212D0D0D112D0D2-
  1139 00005697 EA13D212D1FEFFFFFF-
  1139 000056A0 FFFFFFFFFFFFFFFFFF-
  1139 000056A9 FFFFFFFFFF14171918-
  1139 000056B2 171514EAD1D0D18888-
  1139 000056BB 88D288D1D1D1D1D1D1-
  1139 000056C4 D1131312D1FF1312D0-
  1139 000056CD D1D012121212D01211-
  1139 000056D6 12D0E91515EB13D1FE-
  1139 000056DF FFFFFFFFFFFFFFFFFF-
  1139 000056E8 FFFFFFFFFFFFFFFF08-
  1139 000056F1 18181613D288888888-
  1139 000056FA 898988888988EAE9EA-
  1139 00005703 E9EAEBEA72FFFFFFFF-
  1139 0000570C FFFFFF121212121212-
  1139 00005715 D012D0121212EA16A2-
  1139 0000571E 1513FEFFFFFFFFFFFF-
  1139 00005727 FFFFFFFFFFFFFFFFFF-
  1139 00005730 FFFF1415E9888888D1-
  1139 00005739 728889A389D0FFFFFF-
  1139 00005742 11FFFFFFFFFFFFFFFF-
  1139 0000574B FFFFFFFFFFFFFF1212-
  1139 00005754 E9EA13D11212D01212-
  1139 0000575D 1213EAE9D1FEFFFFFF-
  1139 00005766 FFFFFFFFFFFFFFFFFF-
  1139 0000576F FFFFFFFF13EBD28889-
  1139 00005778 8CD1D0D1D188FFFFFF-
  1139 00005781 FFFFFFFFFFFFFFFFFF-
  1139 0000578A FFFFFFFFFFFFFFFFFF-
  1139 00005793 FF121213E81312D0EA-
  1139 0000579C D21212D11213D112FE-
  1139 000057A5 FFFFFFFFFFFFFFFFFF-
  1139 000057AE FFFFFFFFFFFFFF16EB-
  1139 000057B7 8871FFEA1588D189FF-
  1139 000057C0 FFFFFFFFFFFFFFFFFF-
  1139 000057C9 FFFFFFFFFFFFFFFFFF-
  1139 000057D2 FFFFFFFFFF1112D112-
  1139 000057DB 12121211FFFFFFFFFF-
  1139 000057E4 1211FEFFFFFFFFFFFF-
  1139 000057ED FFFFFFFFFFFFFFFFFF-
  1139 000057F6 08168872068941A288-
  1139 000057FF 06420E42FF06FFFFFF-
  1139 00005808 FFFFFFFFFFFFFFFFFF-
  1139 00005811 FFFFFFFFFFFFFFFFFF-
  1139 0000581A 11D1D21212121412FF-
  1139 00005823 FFFFFFFF11FEFFFFFF-
  1139 0000582C FFFFFFFFFFFFFFFFFF-
  1139 00005835 FFFFA418A0882AFF06-
  1139 0000583E 5B43064243440E2B42-
  1139 00005847 4241FFFFFFFFFFFFFF-
  1139 00005850 FFFFFFFFFFFFFFFFFF-
  1139 00005859 FFFFFFFFE8881213EB-
  1139 00005862 EA15FFFFFFFFFFFFFE-
  1139 0000586B FFFFFFFFFFFFFFFFFF-
  1139 00005874 FFFFFFFFFF17A2892A-
  1139 0000587D 2B42425C5B42434343-
  1139 00005886 43435B434243FFFFFF-
  1139 0000588F FFFFFFFFFFFFFFFFFF-
  1139 00005898 FFFFFFFFFFFFFFFFD2-
  1139 000058A1 12EB15EA13FFFFFFFF-
  1139 000058AA FFFFFEFFFFFFFFFFFF-
  1139 000058B3 FFFFFFFFFFFFFFFFE5-
  1139 000058BC 892A43435B435C5C43-
  1139 000058C5 435B5B5B5C5C43432A-
  1139 000058CE FFFFFFFFFFFFFFFFFF-
  1139 000058D7 FFFFFFFFFFFFFFFFFF-
  1139 000058E0 FFFFFF13EA121212FF-
  1139 000058E9 FFFFFFFFFFFEFFFFFF-
  1139 000058F2 FFFFFFFFFFFFFFFFFF-
  1139 000058FB FFFFA1415B5B435B5B-
  1139 00005904 5C5C5B445B43435C5C-
  1139 0000590D 440E42FFFFFFFFFFFF-
  1139 00005916 FFFFFFFFFFFFFFFFFF-
  1139 0000591F FFFFFFFFFF1214EA12-
  1139 00005928 1113FFFFFFFFFFFFFE-
  1139 00005931 FFFFFFFFFFFFFFFFFF-
  1139 0000593A FFFFFFFF2A41424343-
  1139 00005943 434343434343435B43-
  1139 0000594C 43435B5B2BFFFFFFFF-
  1139 00005955 FFFFFFFFFFFFFFFFFF-
  1139 0000595E FFFFFFFFFFFFFFFF16-
  1139 00005967 16D2D111FFFFFFFFFF-
  1139 00005970 FFFFFEFFFFFFFFFFFF-
  1139 00005979 FFFFFFFFFFFFFF2B42-
  1139 00005982 4143435B5B43434343-
  1139 0000598B 43432B2B2B434342FF-
  1139 00005994 FFFFFFFFFFFFFFFFFF-
  1139 0000599D FFFFFFFFFFFFFFFF42-
  1139 000059A6 2B4016EA1211FFFFFF-
  1139 000059AF FFFFFFFFFFFEFFFFFF-
  1139 000059B8 FFFFFFFFFFFFFFFFFF-
  1139 000059C1 FF4043434343424243-
  1139 000059CA 42FFFFFF2AFFFF2B43-
  1139 000059D3 2BFFFFFFFFFFFFFFFF-
  1139 000059DC FFFFFFFFFFFFFFFFFF-
  1139 000059E5 FF2B2B43410C2A89FF-
  1139 000059EE FFFFFFFFFFFFFFFFFE-
  1139 000059F7 FFFFFFFFFFFFFFFFFF-
  1139 00005A00 FFFFFFFFFF2B434342-
  1139 00005A09 424242FFFFFFFFFFFF-
  1139 00005A12 FF2A2A5BFFFFFFFFFF-
  1139 00005A1B FFFFFFFFFFFFFFFFFF-
  1139 00005A24 FFFFFF412B4241A442-
  1139 00005A2D 432B2AFFFFFFFFFFFF-
  1139 00005A36 FFFFFEFFFFFFFFFFFF-
  1139 00005A3F FFFFFFFFFFFFFFFFFF-
  1139 00005A48 424342424342FFFFFF-
  1139 00005A51 FFFFFFFFFFFFFFFFFF-
  1139 00005A5A FFFFFFFFFFFFFFFFFF-
  1139 00005A63 FFFFFFFFFFFFFF2B42-
  1139 00005A6C 4241424342FFFFFFFF-
  1139 00005A75 FFFFFFFFFFFEFFFFFF-
  1139 00005A7E FFFFFFFFFFFFFFFFFF-
  1139 00005A87 FFFF0C424243425A42-
  1139 00005A90 FFFFFFFFFFFFFFFFFF-
  1139 00005A99 FFFFFFFFFFFFFFFFFF-
  1139 00005AA2 FFFFFFFFFFFFFFFF2B-
  1139 00005AAB 422B435B4343432BFF-
  1139 00005AB4 FFFFFFFFFFFFFFFFFE-
  1139 00005ABD FFFFFFFFFFFFFFFFFF-
  1139 00005AC6 FFFFFFFFFFA4424343-
  1139 00005ACF 5B0F42FFFFFFFFFFFF-
  1139 00005AD8 FFFFFFFFFFFFFFFFFF-
  1139 00005AE1 FFFFFFFFFFFFFFFFFF-
  1139 00005AEA FF41435C435B434343-
  1139 00005AF3 422BFFFFFFFFFFFFFF-
  1139 00005AFC FFFFFEFFFFFFFFFFFF-
  1139 00005B05 FFFFFFFFFFFFFFFFFF-
  1139 00005B0E 412B425A57FFFFFFFF-
  1139 00005B17 FFFFFFFFFFFFFFFFFF-
  1139 00005B20 FFFFFFFFFFFFFFFFFF-
  1139 00005B29 FFFFFF41435C43435B-
  1139 00005B32 434343420FFFFFFFFF-
  1139 00005B3B FFFFFFFFFFFEFFFFFF-
  1139 00005B44 FFFFFFFFFFFFFFFFFF-
  1139 00005B4D FFFFFFFFFFFFFFFFFF-
  1139 00005B56 FFFFFFFFFFFFFFFFFF-
  1139 00005B5F FFFFFFFFFFFFFFFFFF-
  1139 00005B68 FFFFFFFFFFFF2B4243-
  1139 00005B71 42424343435B42FFFF-
  1139 00005B7A FFFFFFFFFFFFFFFFFE-
  1139 00005B83 FFFFFFFFFFFFFFFFFF-
  1139 00005B8C FFFFFFFFFFFFFFFFFF-
  1139 00005B95 FFFFFFFFFFFFFFFFFF-
  1139 00005B9E FFFFFFFFFFFFFFFFFF-
  1139 00005BA7 FFFFFFFFFFFFFFFFFF-
  1139 00005BB0 FFFFFFFFFF2A2B2A43-
  1139 00005BB9 FFFFFFFFFFFFFFFFFF-
  1139 00005BC2 FFFFFEFFFFFFFFFFFF-
  1139 00005BCB FFFFFFFFFFFFFFFFFF-
  1139 00005BD4 FFFFFFFFFFFFFFFFFF-
  1139 00005BDD FFFFFFFFFFFFFFFFFF-
  1139 00005BE6 FFFFFFFFFFFFFFFFFF-
  1139 00005BEF FFFFFFFFFFFFFFFFFF-
  1139 00005BF8 FFFFFFFFFFFFFFFFFF-
  1139 00005C01 FFFFFFFFFFFEFFFFFF-
  1139 00005C0A FFFFFFFFFFFFFFFFFF-
  1139 00005C13 FFFFFFFFFFFFFFFFFF-
  1139 00005C1C FFFFFFFFFFFFFFFFFF-
  1139 00005C25 FFFFFFFFFFFFFFFFFF-
  1139 00005C2E FFFFFFFFFFFFFFFFFF-
  1139 00005C37 FFFFFFFFFFFFFFFFFF-
  1139 00005C40 FFFFFFFFFFFFFFFFFE-
  1139 00005C49 00                 
  1140                                  
  1141 00005C4A FFFFFFFFFFFFFFFFFF-     road:db 255,255,255,255,255,255,255,255,255,255,255,255,255,255,255,255,255,255,255,255,255,255,255,255,255,255,255,255,255,255,255,255,255,255,255,255,255,255,255,255,255,255,255,255,255,255,254,255,255,255,255,255,255,255,255,255,255,255,255,255,255,255,255,255,255,255,255,255,255,255,255,255,255,255,255,255,255,255,255,255,255,255,255,255,255,255,255,255,255,255,255,255,255,254,28,28,28,28,28,28,28,28,28,28,28,28,28,28,28,28,28,28,28,28,28,28,28,28,28,28,28,28,28,28,28,28,28,28,28,28,28,28,28,28,28,28,28,28,28,28,254,30,30,30,30,30,30,30,30,30,30,30,30,30,30,30,30,30,30,30,30,30,30,30,30,30,30,30,30,30,30,30,30,30,30,30,30,30,30,30,30,30,30,30,30,30,30,254,29,29,29,29,29,28,28,28,28,28,28,28,29,29,29,29,29,29,29,29,29,29,29,29,29,29,29,29,28,28,28,28,28,28,28,28,28,28,28,28,28,28,28,28,28,29,254,28,28,28,28,28,28,28,28,28,28,28,28,28,28,28,28,28,28,28,28,28,28,28,28,28,28,28,28,28,28,28,28,28,28,28,28,28,28,28,28,28,28,28,28,28,28,254,28,28,28,28,28,28,28,28,28,28,28,28,28,28,28,28,28,28,28,28,28,28,28...
  1141 00005C53 FFFFFFFFFFFFFFFFFF-
  1141 00005C5C FFFFFFFFFFFFFFFFFF-
  1141 00005C65 FFFFFFFFFFFFFFFFFF-
  1141 00005C6E FFFFFFFFFFFFFFFFFF-
  1141 00005C77 FFFEFFFFFFFFFFFFFF-
  1141 00005C80 FFFFFFFFFFFFFFFFFF-
  1141 00005C89 FFFFFFFFFFFFFFFFFF-
  1141 00005C92 FFFFFFFFFFFFFFFFFF-
  1141 00005C9B FFFFFFFFFFFFFFFFFF-
  1141 00005CA4 FFFFFFFE1C1C1C1C1C-
  1141 00005CAD 1C1C1C1C1C1C1C1C1C-
  1141 00005CB6 1C1C1C1C1C1C1C1C1C-
  1141 00005CBF 1C1C1C1C1C1C1C1C1C-
  1141 00005CC8 1C1C1C1C1C1C1C1C1C-
  1141 00005CD1 1C1C1C1C1CFE1E1E1E-
  1141 00005CDA 1E1E1E1E1E1E1E1E1E-
  1141 00005CE3 1E1E1E1E1E1E1E1E1E-
  1141 00005CEC 1E1E1E1E1E1E1E1E1E-
  1141 00005CF5 1E1E1E1E1E1E1E1E1E-
  1141 00005CFE 1E1E1E1E1E1E1EFE1D-
  1141 00005D07 1D1D1D1D1C1C1C1C1C-
  1141 00005D10 1C1C1D1D1D1D1D1D1D-
  1141 00005D19 1D1D1D1D1D1D1D1D1D-
  1141 00005D22 1C1C1C1C1C1C1C1C1C-
  1141 00005D2B 1C1C1C1C1C1C1C1C1D-
  1141 00005D34 FE1C1C1C1C1C1C1C1C-
  1141 00005D3D 1C1C1C1C1C1C1C1C1C-
  1141 00005D46 1C1C1C1C1C1C1C1C1C-
  1141 00005D4F 1C1C1C1C1C1C1C1C1C-
  1141 00005D58 1C1C1C1C1C1C1C1C1C-
  1141 00005D61 1C1CFE1C1C1C1C1C1C-
  1141 00005D6A 1C1C1C1C1C1C1C1C1C-
  1141 00005D73 1C1C1C1C1C1C1C1C1C-
  1141 00005D7C 1C1C1C1C1C1C1C1C1C-
  1141 00005D85 1C1C1C1C1C1C1C1C1C-
  1141 00005D8E 1C1C1C1CFE1C1C1C1C-
  1141 00005D97 1C1C1C1C1C1C1C1C1C-
  1141 00005DA0 1C1C1C1C1C1C1C1C1C-
  1141 00005DA9 1C1C1C1C1C1C1C1C1C-
  1141 00005DB2 1C1C1C1C1C1C1C1C1C-
  1141 00005DBB 1C1C1C1C1C1CFE1C1C-
  1141 00005DC4 1C1C1C1C1C1C1C1C1C-
  1141 00005DCD 1C1C1C1C1C1C1C1C1C-
  1141 00005DD6 1C1C1C1C1C1C1C1C1C-
  1141 00005DDF 1C1C1C1C1C1C1C1C1C-
  1141 00005DE8 1C1C1C1C1C1C1C1CFE-
  1141 00005DF1 1C1C1C1C1C1C1C1C1C-
  1141 00005DFA 1C1C1C1C1C1C1C1C1C-
  1141 00005E03 1C1C1C1C1C1C1C1C1C-
  1141 00005E0C 1C1C1C1C1C1C1C1C1C-
  1141 00005E15 1C1C1C1C1C1C1C1C1C-
  1141 00005E1E 1CFE1C1C1C1C1C1C1C-
  1141 00005E27 1C1C1C1C1C1C1C1C1C-
  1141 00005E30 1C1C1C1C1C1C1C1C1C-
  1141 00005E39 1C1C1C1C1C1C1C1C1C-
  1141 00005E42 1C1C1C1C1C1C1C1C1C-
  1141 00005E4B 1C1C1CFE1C1C1C1C1C-
  1141 00005E54 1C1C1C1C1C1C1C1C1C-
  1141 00005E5D 1C1C1C1C1C1C1C1C1C-
  1141 00005E66 1C1C1C1C1C1C1C1C1C-
  1141 00005E6F 1C1C1C1C1C1C1C1C1C-
  1141 00005E78 1C1C1C1C1CFE1C1C1C-
  1141 00005E81 1C1C1C1C1C1C1C1C1C-
  1141 00005E8A 1C1C1C1C1C1C1C1C1C-
  1141 00005E93 1C1C1C1C1C1D1D1D1D-
  1141 00005E9C 1D1D1D1D1C1C1C1C1C-
  1141 00005EA5 1C1C1C1C1C1C1CFE1C-
  1141 00005EAE 1C1C1C1C1C1C1C1C1C-
  1141 00005EB7 1D1E1E1E1E0F0F0F1E-
  1141 00005EC0 1E1E1E1E1E0F0F0F0F-
  1141 00005EC9 0F0F0F0F0F1E1E1D1D-
  1141 00005ED2 1D1C1C1C1C1C1C1C1C-
  1141 00005EDB FE1C070707071C1C1C-
  1141 00005EE4 1C1C1C1D1D1D1D1D1D-
  1141 00005EED 1D1D1D1D1D1D1D1D1D-
  1141 00005EF6 1D1D1D1D1D1D1D1D1D-
  1141 00005EFF 1C1C1C1C1C1C1C1C1C-
  1141 00005F08 1C1CFE1C1C1C1C1C1C-
  1141 00005F11 1C1C1C1C1C1C1C1C1C-
  1141 00005F1A 1C1C1C1C1C1C1C1C1C-
  1141 00005F23 1C1C1C1C1C1C1C1C1C-
  1141 00005F2C 1C1C1C1C1C1C1C1C1C-
  1141 00005F35 1C1C1C1CFE1C1C1C1C-
  1141 00005F3E 1C1C1C1C1C1C1C0707-
  1141 00005F47 070707070707070707-
  1141 00005F50 1C1C1C1C1C1C1C1C1C-
  1141 00005F59 1C1C1C1C1C1C1C1C1C-
  1141 00005F62 1C1C1C1C1C1CFE1C1C-
  1141 00005F6B 1C1C1C1C1C07070707-
  1141 00005F74 070707070707070707-
  1141 00005F7D 07071C1C1C1C1C1C1C-
  1141 00005F86 1C1C1C1C1C1C1C1C1C-
  1141 00005F8F 1C1C1C1C1C1C1C1CFE-
  1141 00005F98 1C1C1C1C1C1C070707-
  1141 00005FA1 07070707071C1C1C1C-
  1141 00005FAA 1C1C1C1C1C1C1C1C1C-
  1141 00005FB3 1C1C1C1C1C1C1C1C1C-
  1141 00005FBC 1C1C1C1C1C1C1C1C1C-
  1141 00005FC5 1CFE1C1C1C1C1C1C1C-
  1141 00005FCE 1C1C1C1C1C1C1C1C1C-
  1141 00005FD7 1C1C1C1C1C1C1C1C1C-
  1141 00005FE0 1C1C1C1C1C1C1C1C1C-
  1141 00005FE9 1C1C1C1C1C1C1C1C1C-
  1141 00005FF2 1C1C1CFE1C1C1C1C1C-
  1141 00005FFB 1C1C1C1C1C1C1C1C1C-
  1141 00006004 1C1C1C1C1C1C1C1C1C-
  1141 0000600D 1C1C1C1C1C1C1C1C1C-
  1141 00006016 1C1C1C1C1C1C1C1C1C-
  1141 0000601F 1C1C1C1C1CFE1C1C1C-
  1141 00006028 1C1C1C1C1C1C1C1C1C-
  1141 00006031 1C1C1C1C1C1C1C1C1C-
  1141 0000603A 1C1C1C1C1C1C1C1C1C-
  1141 00006043 1C1C1C1C1C1C1C1C1C-
  1141 0000604C 1C1C1C1C1C1C1CFE1C-
  1141 00006055 1C1C1C1C1C1C1C1C1C-
  1141 0000605E 1C1C1C1C1C1C1C1C1C-
  1141 00006067 1C1C1C1C1C1C1C1C1C-
  1141 00006070 1C1C1C1C1C1C1C1C1C-
  1141 00006079 1C1C1C1C1C1C1C1C1C-
  1141 00006082 FE1C1C1C1C1C1C1C1C-
  1141 0000608B 1C1C1C1C1C1C1C1C1C-
  1141 00006094 1C1C1C1C1C1C1C1C1C-
  1141 0000609D 1C1C1C1C1C1C1C1C1C-
  1141 000060A6 1C1C1C1C1C1C1C1C1C-
  1141 000060AF 1C1CFE1C1C1C1C1C1C-
  1141 000060B8 1C1C1C1C1C1C1C1C1C-
  1141 000060C1 1C1C1C1C1C1C1C1C1C-
  1141 000060CA 1C1C1C1C1C1C1C1C1C-
  1141 000060D3 1C1C1C1C1C1C1C1C1C-
  1141 000060DC 1C1C1C1CFE1C1C1C1C-
  1141 000060E5 1C1C1C1C1C1C1C1C1C-
  1141 000060EE 1C1C1C1C1C1C1C1C1C-
  1141 000060F7 1C1C1C1C1C1C1C1C1C-
  1141 00006100 1C1C1C1C1C1C1C1C1C-
  1141 00006109 1C1C1C1C1C1CFE1D1D-
  1141 00006112 1D1D1C1C1C1D1D1D1D-
  1141 0000611B 1C1C1C1C1D1D1D1D1D-
  1141 00006124 1D1D1D1D1D1D1C1D1D-
  1141 0000612D 1D1D1D1D1D1D1D1D1D-
  1141 00006136 1D1D1D1D1D1D1D1DFE-
  1141 0000613F 0F0F0F0F0F0F0F0F0F-
  1141 00006148 0F0F0F0F0F0F0F0F0F-
  1141 00006151 0F0F0F0F0F0F0F0F0F-
  1141 0000615A 0F0F0F0F0F0F0F0F0F-
  1141 00006163 0F0F0F0F0F0F0F0F0F-
  1141 0000616C 0FFE1E1E1E1E1E1E1E-
  1141 00006175 1E1E1E1E1E1E1E1E1E-
  1141 0000617E 1E1E1E1E1E1E1E1E1E-
  1141 00006187 1E1E1E1E1E1E1E1E1E-
  1141 00006190 1E1E1E1E1E1E1E1E1E-
  1141 00006199 1E1E1EFE1C1C1C1C1C-
  1141 000061A2 1C1C1C1C1C1C1C1C1C-
  1141 000061AB 1C1C1C1C1C1C1C1C1C-
  1141 000061B4 1C1C1C1C1C1C1C1C1C-
  1141 000061BD 1C1C1C1C1C1C1C1C1C-
  1141 000061C6 1C1C1C1C1CFE1B1B1B-
  1141 000061CF 1B1B1B1B1B1B1B1B1B-
  1141 000061D8 1B1B1B1B1B1B1B1B1B-
  1141 000061E1 1B1B1B1B1B1B1B1B1B-
  1141 000061EA 1B1B1B1B1B1B1B1B1B-
  1141 000061F3 1B1B1B1B1B1B1BFEFF-
  1141 000061FC FFFFFFFFFFFFFFFFFF-
  1141 00006205 FFFFFFFFFFFFFFFFFF-
  1141 0000620E FFFFFFFFFFFFFFFFFF-
  1141 00006217 FFFFFFFFFFFFFFFFFF-
  1141 00006220 FFFFFFFFFFFFFFFFFF-
  1141 00006229 FEFFFFFFFFFFFFFFFF-
  1141 00006232 FFFFFFFFFFFFFFFFFF-
  1141 0000623B FFFFFFFFFFFFFFFFFF-
  1141 00006244 FFFFFFFFFFFFFFFFFF-
  1141 0000624D FFFFFFFFFFFFFFFFFF-
  1141 00006256 FFFFFE             
  1142 00006259 0F06                    roadsize:dw 1551
  1143                                  
  1144 0000625B FFFFFFFFFFFFFFFFFF-     fence:db 255,255,255,255,255,255,255,255,255,255,255,255,255,255,255,255,255,255,255,255,255,255,255,255,255,255,255,255,255,255,255,255,254,255,255,255,255,255,255,255,255,255,255,255,255,255,255,255,255,255,255,255,255,255,255,255,255,255,255,255,255,255,255,255,255,254,255,255,255,28,255,255,255,255,255,255,255,255,255,255,255,255,255,255,255,255,255,255,255,255,255,255,255,255,255,255,255,255,254,255,255,255,15,7,255,255,255,255,255,255,255,255,255,255,255,255,255,255,255,255,255,255,255,255,255,255,255,255,255,255,255,254,255,255,25,15,29,255,255,255,255,255,255,255,255,255,255,255,255,255,255,255,255,255,255,255,255,255,255,255,255,255,255,255,254,255,255,29,15,30,23,255,255,255,255,255,255,255,255,255,255,255,255,255,255,255,255,255,255,255,255,255,255,255,255,255,255,254,255,255,15,30,30,27,255,255,255,255,255,255,255,255,255,255,255,255,255,255,255,255,255,255,255,255,255,255,255,255,255,255,254,255,26,15,30,30,29,255,255,255,255,255,255,255,255,255,255,255,255,255,255,255,255,255,255,255,255,255...
  1144 00006264 FFFFFFFFFFFFFFFFFF-
  1144 0000626D FFFFFFFFFFFFFFFFFF-
  1144 00006276 FFFFFFFFFFFEFFFFFF-
  1144 0000627F FFFFFFFFFFFFFFFFFF-
  1144 00006288 FFFFFFFFFFFFFFFFFF-
  1144 00006291 FFFFFFFFFFFFFFFFFF-
  1144 0000629A FFFFFEFFFFFF1CFFFF-
  1144 000062A3 FFFFFFFFFFFFFFFFFF-
  1144 000062AC FFFFFFFFFFFFFFFFFF-
  1144 000062B5 FFFFFFFFFFFFFFFFFE-
  1144 000062BE FFFFFF0F07FFFFFFFF-
  1144 000062C7 FFFFFFFFFFFFFFFFFF-
  1144 000062D0 FFFFFFFFFFFFFFFFFF-
  1144 000062D9 FFFFFFFFFFFEFFFF19-
  1144 000062E2 0F1DFFFFFFFFFFFFFF-
  1144 000062EB FFFFFFFFFFFFFFFFFF-
  1144 000062F4 FFFFFFFFFFFFFFFFFF-
  1144 000062FD FFFFFEFFFF1D0F1E17-
  1144 00006306 FFFFFFFFFFFFFFFFFF-
  1144 0000630F FFFFFFFFFFFFFFFFFF-
  1144 00006318 FFFFFFFFFFFFFFFFFE-
  1144 00006321 FFFF0F1E1E1BFFFFFF-
  1144 0000632A FFFFFFFFFFFFFFFFFF-
  1144 00006333 FFFFFFFFFFFFFFFFFF-
  1144 0000633C FFFFFFFFFFFEFF1A0F-
  1144 00006345 1E1E1DFFFFFFFFFFFF-
  1144 0000634E FFFFFFFFFFFFFFFFFF-
  1144 00006357 FFFFFFFFFFFFFFFFFF-
  1144 00006360 FFFFFEFF1D1E1E1E1E-
  1144 00006369 17FFFFFFFFFFFFFFFF-
  1144 00006372 FFFFFFFFFFFFFFFFFF-
  1144 0000637B FFFFFFFFFFFFFFFFFE-
  1144 00006384 FF0F1E1E1E1E1BFFFF-
  1144 0000638D FFFFFFFFFFFFFFFFFF-
  1144 00006396 FFFFFFFFFFFFFFFFFF-
  1144 0000639F FFFFFFFFFFFE1A1E1E-
  1144 000063A8 1E1E1E1DFFFFFFFFFF-
  1144 000063B1 FFFFFFFFFFFFFFFFFF-
  1144 000063BA FFFFFFFFFFFFFFFFFF-
  1144 000063C3 FFFFFE1C1E1E1E1E1E-
  1144 000063CC 1D16FFFFFFFFFFFFFF-
  1144 000063D5 FFFFFFFFFFFFFFFFFF-
  1144 000063DE FFFFFFFFFFFFFFFFFE-
  1144 000063E7 1C1E1E1E1E1E1D16FF-
  1144 000063F0 FFFFFFFFFFFFFFFFFF-
  1144 000063F9 FFFFFFFFFFFFFFFFFF-
  1144 00006402 FFFFFFFFFFFE1C1E1E-
  1144 0000640B 1E1E1E1D16FFFFFFFF-
  1144 00006414 FFFFFFFFFFFFFFFFFF-
  1144 0000641D FFFFFFFFFFFFFFFFFF-
  1144 00006426 FFFFFE1E1E1E1E1E1E-
  1144 0000642F 1D1B19191919191919-
  1144 00006438 191919191919191919-
  1144 00006441 191919191919191AFE-
  1144 0000644A 0F1E1E1E1E1E1D1D1E-
  1144 00006453 1E1E1E1E1E1E1E1E1E-
  1144 0000645C 1E1E1E1E1E1E1E1E1E-
  1144 00006465 1E1E1E1E1EFE1D1E1E-
  1144 0000646E 1E1E1E1D1A18181818-
  1144 00006477 181818181818181818-
  1144 00006480 181818181818181818-
  1144 00006489 1819FE1A1E1E1E1E1E-
  1144 00006492 1D16FFFFFFFFFFFFFF-
  1144 0000649B FFFFFFFFFFFFFFFFFF-
  1144 000064A4 FFFFFFFFFFFFFFFFFE-
  1144 000064AD 1D1E1E1E1E1E1D071A-
  1144 000064B6 1A1A1A1B1B1B1B1B1B-
  1144 000064BF 1B1B1B1B1B1B1B1B1B-
  1144 000064C8 1B1B1B1B1BFE1E1E1E-
  1144 000064D1 1E1E1E1D1D1E1E1E1E-
  1144 000064DA 1E1E1E1E1E1E1E1E1E-
  1144 000064E3 1E1E1E1E1E1E1E1E1E-
  1144 000064EC 1E1EFE1C1E1E1E1E1E-
  1144 000064F5 1D19FFFFFFFFFFFFFF-
  1144 000064FE FFFFFFFFFFFFFFFFFF-
  1144 00006507 FFFFFFFFFFFFFFFFFE-
  1144 00006510 1A1E1E1E1E1E1D15FF-
  1144 00006519 FFFFFFFFFFFFFFFFFF-
  1144 00006522 FFFFFFFFFFFFFFFFFF-
  1144 0000652B FFFFFFFFFFFE071E1E-
  1144 00006534 1E1E1E1D19FFFFFFFF-
  1144 0000653D FFFFFFFFFFFFFFFFFF-
  1144 00006546 FFFFFFFFFFFFFFFFFF-
  1144 0000654F FFFFFE1E1E1E1E1E1E-
  1144 00006558 1D1D1E1E1E1E1E1E1E-
  1144 00006561 1E1E1E1E1E1E1E1E1E-
  1144 0000656A 1E1E1E1E1E1E1E1EFE-
  1144 00006573 1E1E1E1E1E1E1D071B-
  1144 0000657C 070707070707070707-
  1144 00006585 070707070707070707-
  1144 0000658E 0707070707FE1A1E1E-
  1144 00006597 1E1E1E1C08FFFFFFFF-
  1144 000065A0 FFFFFFFFFFFFFFFFFF-
  1144 000065A9 FFFFFFFFFFFFFFFFFF-
  1144 000065B2 FFFFFE1A1D1E1E1E1E-
  1144 000065BB 1D16FFFFFFFFFFFFFF-
  1144 000065C4 FFFFFFFFFFFFFFFFFF-
  1144 000065CD FFFFFFFFFFFFFFFFFE-
  1144 000065D6 1B1D1E1E1E1E1C16FF-
  1144 000065DF FFFFFFFFFFFFFFFFFF-
  1144 000065E8 FFFFFFFFFFFFFFFFFF-
  1144 000065F1 FFFFFFFFFFFE071E1E-
  1144 000065FA 1E1E1D1C15FFFFFFFF-
  1144 00006603 FFFFFFFFFFFFFFFFFF-
  1144 0000660C FFFFFFFFFFFFFFFFFF-
  1144 00006615 FFFFFEFF1A1A1A1919-
  1144 0000661E 18FFFFFFFFFFFFFFFF-
  1144 00006627 FFFFFFFFFFFFFFFFFF-
  1144 00006630 FFFFFFFFFFFFFFFFFE-
  1144 00006639 FFFFFFFFFFFFFFFFFF-
  1144 00006642 FFFFFFFFFFFFFFFFFF-
  1144 0000664B FFFFFFFFFFFFFFFFFF-
  1144 00006654 FFFFFFFFFFFE       
  1145 0000665A FF03                    fencesize:dw 1023
  1146                                  
  1147 0000665C FFFFFFFFFFFFFFFFFF-     mountain: db 255,255,255,255,255,255,255,255,255,255,255,255,255,255,255,255,255,255,255,255,255,255,255,255,255,255,255,255,255,255,255,255,255,255,255,255,255,255,255,255,255,255,255,255,255,255,255,255,255,255,255,255,255,255,255,255,255,255,255,255,255,255,255,255,255,255,255,255,255,255,255,255,255,255,255,255,255,255,255,255,255,255,255,255,255,255,255,255,255,255,255,255,255,255,255,255,255,255,255,255,255,255,255,255,255,255,255,255,255,255,255,255,255,255,255,255,255,255,255,255,255,255,255,255,255,255,255,255,255,255,255,255,255,255,255,255,255,255,255,255,255,255,255,255,255,255,255,255,255,255,255,255,255,255,255,255,255,255,255,255,255,255,255,255,255,255,255,255,255,255,255,255,255,255,255,255,255,255,255,255,255,255,255,255,255,255,255,255,255,255,255,255,255,255,255,255,255,255,255,255,254,255,255,255,255,255,255,255,255,255,255,255,255,255,255,255,255,255,255,255,255,255,255,255,255,255,255,255,255,255,255,255,255,255,255,255,255,255,255,255,255,255,255,255,255,255,255,255,255,255,255,255...
  1147 00006665 FFFFFFFFFFFFFFFFFF-
  1147 0000666E FFFFFFFFFFFFFFFFFF-
  1147 00006677 FFFFFFFFFFFFFFFFFF-
  1147 00006680 FFFFFFFFFFFFFFFFFF-
  1147 00006689 FFFFFFFFFFFFFFFFFF-
  1147 00006692 FFFFFFFFFFFFFFFFFF-
  1147 0000669B FFFFFFFFFFFFFFFFFF-
  1147 000066A4 FFFFFFFFFFFFFFFFFF-
  1147 000066AD FFFFFFFFFFFFFFFFFF-
  1147 000066B6 FFFFFFFFFFFFFFFFFF-
  1147 000066BF FFFFFFFFFFFFFFFFFF-
  1147 000066C8 FFFFFFFFFFFFFFFFFF-
  1147 000066D1 FFFFFFFFFFFFFFFFFF-
  1147 000066DA FFFFFFFFFFFFFFFFFF-
  1147 000066E3 FFFFFFFFFFFFFFFFFF-
  1147 000066EC FFFFFFFFFFFFFFFFFF-
  1147 000066F5 FFFFFFFFFFFFFFFFFF-
  1147 000066FE FFFFFFFFFFFFFFFFFF-
  1147 00006707 FFFFFFFFFFFFFFFFFF-
  1147 00006710 FFFFFFFFFFFFFFFFFF-
  1147 00006719 FFFFFFFFFFFFFFFFFF-
  1147 00006722 FFFFFEFFFFFFFFFFFF-
  1147 0000672B FFFFFFFFFFFFFFFFFF-
  1147 00006734 FFFFFFFFFFFFFFFFFF-
  1147 0000673D FFFFFFFFFFFFFFFFFF-
  1147 00006746 FFFFFFFFFFFFFFFFFF-
  1147 0000674F FFFFFFFFFFFFFFFFFF-
  1147 00006758 FFFFFFFFFFFFFFFFFF-
  1147 00006761 FFFFFFFFFFFFFFFFFF-
  1147 0000676A FFFFFFFFFFFFFFFFFF-
  1147 00006773 FFFFFF5C5BFFFFFFFF-
  1147 0000677C FFFFFFFFFFFFFFFFFF-
  1147 00006785 FFFFFFFFFFFFFFFFFF-
  1147 0000678E FFFFFFFFFFFFFFFFFF-
  1147 00006797 FFFFFFFFFFFFFFFFFF-
  1147 000067A0 FFFFFFFFFFFFFFFFFF-
  1147 000067A9 FFFFFFFFFFFFFFFFFF-
  1147 000067B2 FFFFFFFFFFFFFFFFFF-
  1147 000067BB FFFFFFFFFFFFFFFFFF-
  1147 000067C4 FFFFFFFFFFFFFFFFFF-
  1147 000067CD FFFFFFFFFFFFFFFFFF-
  1147 000067D6 FFFFFFFFFFFFFFFFFF-
  1147 000067DF FFFFFFFFFFFFFFFFFF-
  1147 000067E8 FFFFFFFFFFFEFFFFFF-
  1147 000067F1 FFFFFFFFFFFFFFFFFF-
  1147 000067FA FFFFFFFFFFFFFFFFFF-
  1147 00006803 FFFFFFFFFFFFFFFFFF-
  1147 0000680C FFFFFFFFFFFFFFFFFF-
  1147 00006815 FFFFFFFFFFFFFFFFFF-
  1147 0000681E FFFFFFFFFFFFFFFFFF-
  1147 00006827 FFFFFFFFFFFFFFFFFF-
  1147 00006830 FFFFFFFFFFFFFFFFFF-
  1147 00006839 FFFFFFFFFF5C5C5BFF-
  1147 00006842 FFFFFFFFFFFFFFFFFF-
  1147 0000684B FFFFFFFFFFFFFFFFFF-
  1147 00006854 FFFFFFFFFFFFFFFFFF-
  1147 0000685D FFFFFFFFFFFFFFFFFF-
  1147 00006866 FFFFFFFFFFFFFFFFFF-
  1147 0000686F FFFFFFFFFFFFFFFFFF-
  1147 00006878 FFFFFFFF5C5C5B1EFF-
  1147 00006881 FFFFFFFFFFFFFFFFFF-
  1147 0000688A FFFFFFFFFFFFFFFFFF-
  1147 00006893 FFFFFFFFFFFFFFFFFF-
  1147 0000689C FFFFFFFFFFFFFFFFFF-
  1147 000068A5 FFFFFFFFFFFFFFFFFF-
  1147 000068AE FFFFFFFFFFFFFFFFFE-
  1147 000068B7 FFFFFFFFFFFFFFFFFF-
  1147 000068C0 FFFFFFFFFFFFFFFFFF-
  1147 000068C9 FFFFFFFFFFFFFFFFFF-
  1147 000068D2 FFFFFFFFFFFFFFFFFF-
  1147 000068DB FFFFFFFFFFFFFFFFFF-
  1147 000068E4 FFFFFFFFFFFFFFFFFF-
  1147 000068ED FFFFFFFFFFFFFFFFFF-
  1147 000068F6 FFFFFFFFFFFFFFFFFF-
  1147 000068FF FFFFFFFFFFFFFF5C5C-
  1147 00006908 5C5B5AFFFFFFFFFFFF-
  1147 00006911 FFFFFFFFFFFFFFFFFF-
  1147 0000691A FFFFFFFFFFFFFFFFFF-
  1147 00006923 FFFFFFFFFFFFFFFFFF-
  1147 0000692C FFFFFFFFFFFFFFFFFF-
  1147 00006935 FFFFFFFFFFFFFFFFFF-
  1147 0000693E FFFFFFFFFFFF5C5C5B-
  1147 00006947 1B5B1DFFFFFFFFFFFF-
  1147 00006950 FFFFFFFFFFFFFFFFFF-
  1147 00006959 FFFFFFFFFFFFFFFFFF-
  1147 00006962 FFFFFFFFFFFFFFFFFF-
  1147 0000696B FFFFFFFFFFFFFFFFFF-
  1147 00006974 FFFFFFFFFFFFFFFFFF-
  1147 0000697D FFFFFEFFFFFFFFFFFF-
  1147 00006986 FFFFFFFFFFFFFFFFFF-
  1147 0000698F FFFFFFFFFFFFFFFFFF-
  1147 00006998 FFFFFFFFFFFFFFFFFF-
  1147 000069A1 FFFFFFFFFFFFFFFFFF-
  1147 000069AA FFFFFFFFFFFFFFFFFF-
  1147 000069B3 FFFFFFFFFFFFFFFFFF-
  1147 000069BC FFFFFFFFFFFFFFFFFF-
  1147 000069C5 FFFFFFFFFFFFFFFFFF-
  1147 000069CE 5C5C5C5B5B1D19FFFF-
  1147 000069D7 FFFFFFFFFFFFFFFFFF-
  1147 000069E0 FFFFFFFFFFFFFFFFFF-
  1147 000069E9 FFFFFFFFFFFFFFFFFF-
  1147 000069F2 FFFFFFFFFFFFFFFFFF-
  1147 000069FB FFFFFFFFFFFFFFFFFF-
  1147 00006A04 FFFFFFFFFFFFFF5C5C-
  1147 00006A0D 5C5C5B5B1D1D1DFFFF-
  1147 00006A16 FFFFFFFFFFFFFFFFFF-
  1147 00006A1F FFFFFFFFFFFFFFFFFF-
  1147 00006A28 FFFFFFFFFFFFFFFFFF-
  1147 00006A31 FFFFFFFFFFFFFFFFFF-
  1147 00006A3A FFFFFFFFFFFFFFFFFF-
  1147 00006A43 FFFFFFFFFFFEFFFFFF-
  1147 00006A4C FFFFFFFFFFFFFFFFFF-
  1147 00006A55 FFFFFFFFFFFFFFFFFF-
  1147 00006A5E FFFFFFFFFFFFFFFFFF-
  1147 00006A67 FFFFFFFFFFFFFFFFFF-
  1147 00006A70 FFFFFFFFFFFFFFFFFF-
  1147 00006A79 FFFFFFFFFFFFFFFFFF-
  1147 00006A82 FFFFFFFFFFFFFFFFFF-
  1147 00006A8B FFFFFFFFFFFFFFFFFF-
  1147 00006A94 FFFF5C5C5C5C5B5A1D-
  1147 00006A9D AC181D1C1DFFFFFFFF-
  1147 00006AA6 FFFFFFFFFFFFFFFFFF-
  1147 00006AAF FFFFFFFFFFFFFFFFFF-
  1147 00006AB8 FFFFFFFFFFFFFFFFFF-
  1147 00006AC1 FFFFFFFFFFFFFFFFFF-
  1147 00006ACA FFFFFFFFFFFFFFFFFF-
  1147 00006AD3 5C5C5C5C5B1E1E1E1D-
  1147 00006ADC 1C1DFFFFFFFFFFFFFF-
  1147 00006AE5 FFFFFFFFFFFFFFFFFF-
  1147 00006AEE FFFFFFFFFFFFFFFFFF-
  1147 00006AF7 FFFFFFFFFFFFFFFFFF-
  1147 00006B00 FFFFFFFFFFFFFFFFFF-
  1147 00006B09 FFFFFFFFFFFFFFFFFE-
  1147 00006B12 FFFFFFFFFFFFFFFFFF-
  1147 00006B1B FFFFFFFFFFFFFFFFFF-
  1147 00006B24 FFFFFFFFFFFFFFFFFF-
  1147 00006B2D FFFFFFFFFFFFFFFFFF-
  1147 00006B36 FFFFFFFFFFFFFFFFFF-
  1147 00006B3F FFFFFFFFFFFFFFFFFF-
  1147 00006B48 FFFFFFFFFFFFFFFFFF-
  1147 00006B51 FFFFFFFFFFFFFFFFFF-
  1147 00006B5A FFFFFFFF5C5C5C5B1E-
  1147 00006B63 5A1D1D1907071C071E-
  1147 00006B6C FFFFFFFFFFFFFFFFFF-
  1147 00006B75 FFFFFFFFFFFFFFFFFF-
  1147 00006B7E FFFFFFFFFFFFFFFFFF-
  1147 00006B87 FFFFFFFFFFFFFFFFFF-
  1147 00006B90 FFFFFFFFFFFFFFFFFF-
  1147 00006B99 0F0F5C5C5C5C5B5B1E-
  1147 00006BA2 1E1E1D071D1DFFFFFF-
  1147 00006BAB FFFFFFFFFFFFFFFFFF-
  1147 00006BB4 FFFFFFFFFFFFFFFFFF-
  1147 00006BBD FFFFFFFFFFFFFFFFFF-
  1147 00006BC6 FFFFFFFFFFFFFFFFFF-
  1147 00006BCF FFFFFFFFFFFFFFFFFF-
  1147 00006BD8 FFFFFEFFFFFFFFFFFF-
  1147 00006BE1 FFFFFFFFFFFFFFFFFF-
  1147 00006BEA FFFFFFFFFFFFFFFFFF-
  1147 00006BF3 FFFFFFFFFFFFFFFFFF-
  1147 00006BFC FFFFFFFFFFFFFFFFFF-
  1147 00006C05 FFFFFFFFFFFFFFFFFF-
  1147 00006C0E FFFFFFFFFFFFFFFFFF-
  1147 00006C17 FFFFFFFFFFFFFFFFFF-
  1147 00006C20 FFFFFFFFFF5C5C5C5C-
  1147 00006C29 5B5B1E1D1D1C1B1A07-
  1147 00006C32 07071CFFFFFFFFFFFF-
  1147 00006C3B FFFFFFFFFFFFFFFFFF-
  1147 00006C44 FFFFFFFFFFFFFFFFFF-
  1147 00006C4D FFFFFFFFFFFFFFFFFF-
  1147 00006C56 FFFFFFFFFFFFFFFFFF-
  1147 00006C5F FFFF0F0F5C5C5C5C5B-
  1147 00006C68 1E5B1E1E1D1C1C071C-
  1147 00006C71 FFFFFFFFFFFFFFFFFF-
  1147 00006C7A FFFFFFFFFFFFFFFFFF-
  1147 00006C83 FFFFFFFFFFFFFFFFFF-
  1147 00006C8C FFFFFFFFFFFFFFFFFF-
  1147 00006C95 FFFFFFFFFFFFFFFFFF-
  1147 00006C9E FFFFFFFFFFFEFFFFFF-
  1147 00006CA7 FFFFFFFFFFFFFFFFFF-
  1147 00006CB0 FFFFFFFFFFFFFFFFFF-
  1147 00006CB9 FFFFFFFFFFFFFFFFFF-
  1147 00006CC2 FFFFFFFFFFFFFFFFFF-
  1147 00006CCB FFFFFFFFFFFFFFFFFF-
  1147 00006CD4 FFFFFFFFFFFFFFFFFF-
  1147 00006CDD FFFFFFFFFFFFFFFFFF-
  1147 00006CE6 FFFFFFFFFFFF5B5B5B-
  1147 00006CEF 5B5B1E1E5B1E1E1CAC-
  1147 00006CF8 1A07071C1C1C1DFFFF-
  1147 00006D01 FFFFFFFFFFFFFFFFFF-
  1147 00006D0A FFFFFFFFFFFFFFFFFF-
  1147 00006D13 FFFFFFFFFFFFFFFFFF-
  1147 00006D1C FFFFFFFFFFFFFFFFFF-
  1147 00006D25 FFFFFFFFFF5C0F5C5C-
  1147 00006D2E 5C5C1E1E1E1E1D1C07-
  1147 00006D37 07071C1DFFFFFFFFFF-
  1147 00006D40 FFFFFFFFFFFFFFFFFF-
  1147 00006D49 FFFFFFFFFFFFFFFFFF-
  1147 00006D52 FFFFFFFFFFFFFFFFFF-
  1147 00006D5B FFFFFFFFFFFFFFFFFF-
  1147 00006D64 FFFFFFFFFFFFFFFFFE-
  1147 00006D6D FFFFFFFFFFFFFFFFFF-
  1147 00006D76 FFFFFFFFFFFFFFFFFF-
  1147 00006D7F FFFFFFFFFFFFFFFFFF-
  1147 00006D88 FFFFFFFFFFFFFFFFFF-
  1147 00006D91 FFFFFFFFFFFFFFFFFF-
  1147 00006D9A FFFFFFFFFFFFFFFFFF-
  1147 00006DA3 FFFFFFFFFFFFFFFFFF-
  1147 00006DAC FFFFFFFFFFFFFFFF5A-
  1147 00006DB5 5B1E1E5B1E5A1D1D19-
  1147 00006DBE 1B1C1B18181C1B071D-
  1147 00006DC7 1EFFFFFFFFFFFFFFFF-
  1147 00006DD0 FFFFFFFFFFFFFFFFFF-
  1147 00006DD9 FFFFFFFFFFFFFFFFFF-
  1147 00006DE2 FFFFFFFFFFFFFFFFFF-
  1147 00006DEB FFFFFFFFFFFFFF5C0F-
  1147 00006DF4 0F5C5C5C1E1E1E1E1E-
  1147 00006DFD 1E1CAC181B1C1D1DFF-
  1147 00006E06 FFFFFFFFFFFFFFFFFF-
  1147 00006E0F FFFFFFFFFFFFFFFFFF-
  1147 00006E18 FFFFFFFFFFFFFFFFFF-
  1147 00006E21 FFFFFFFFFFFFFFFFFF-
  1147 00006E2A FFFFFFFFFFFFFFFFFF-
  1147 00006E33 FFFFFEFFFFFFFFFFFF-
  1147 00006E3C FFFFFFFFFFFFFFFFFF-
  1147 00006E45 FFFFFFFFFFFFFFFFFF-
  1147 00006E4E FFFFFFFFFFFFFFFFFF-
  1147 00006E57 FFFFFFFFFFFFFFFFFF-
  1147 00006E60 FFFFFFFFFFFFFFFFFF-
  1147 00006E69 FFFFFFFFFFFF5C5C1E-
  1147 00006E72 FFFFFFFFFFFFFFFF1C-
  1147 00006E7B 1D1D1D1D1E1D1A1D1C-
  1147 00006E84 1C1E18AC071C1AAD1C-
  1147 00006E8D 1C1D1E1D1E1EFFFFFF-
  1147 00006E96 FFFFFFFFFFFFFFFFFF-
  1147 00006E9F FFFFFFFFFFFFFFFFFF-
  1147 00006EA8 FFFFFFFFFFFFFFFFFF-
  1147 00006EB1 FFFFFFFFFFFFFFFFFF-
  1147 00006EBA 5C5C1E1E5B5B5B1E1E-
  1147 00006EC3 1E1D1E1E1CAEAE1A1D-
  1147 00006ECC 071DFFFFFFFFFFFFFF-
  1147 00006ED5 FFFFFFFFFFFFFFFFFF-
  1147 00006EDE FFFFFFFFFFFFFFFFFF-
  1147 00006EE7 FFFFFFFFFFFFFFFFFF-
  1147 00006EF0 FFFFFFFFFFFFFFFFFF-
  1147 00006EF9 FFFFFFFFFFFEFFFFFF-
  1147 00006F02 FFFFFFFFFFFFFFFFFF-
  1147 00006F0B FFFFFFFFFFFFFFFFFF-
  1147 00006F14 FFFFFFFFFFFFFFFFFF-
  1147 00006F1D FFFFFFFFFFFFFFFFFF-
  1147 00006F26 FFFFFFFFFFFFFFFFFF-
  1147 00006F2F FFFFFFFFFFFFFFFFFF-
  1147 00006F38 075B5B1E1E1E1EFFFF-
  1147 00006F41 FF1C1B1D1D1C1D1D1D-
  1147 00006F4A 191919180707071C1C-
  1147 00006F53 1DAD1C1E1D1D1C1C1D-
  1147 00006F5C 1E1EFFFFFFFFFFFFFF-
  1147 00006F65 FFFFFFFFFFFFFFFFFF-
  1147 00006F6E FFFFFFFFFFFFFFFFFF-
  1147 00006F77 FFFFFFFFFFFFFFFFFF-
  1147 00006F80 FFFFFF5C5C1E5B5B5B-
  1147 00006F89 5B1E1D1D1D1E1E1D19-
  1147 00006F92 F6AD1D1C1D1DFFFFFF-
  1147 00006F9B FFFFFFFFFFFFFFFFFF-
  1147 00006FA4 FFFFFFFFFFFFFFFFFF-
  1147 00006FAD FFFFFFFFFFFFFFFFFF-
  1147 00006FB6 FFFFFFFFFFFFFFFFFF-
  1147 00006FBF FFFFFFFFFFFFFFFFFE-
  1147 00006FC8 FFFFFFFFFFFFFFFFFF-
  1147 00006FD1 FFFFFFFFFFFFFFFFFF-
  1147 00006FDA FFFFFFFFFFFFFFFFFF-
  1147 00006FE3 FFFFFFFFFFFFFFFFFF-
  1147 00006FEC FFFFFFFFFFFFFFFFFF-
  1147 00006FF5 FFFFFFFFFFFFFFFFFF-
  1147 00006FFE FFFF5B5B5B5B5B5B1E-
  1147 00007007 1E1E1DFFAC1A1C0707-
  1147 00007010 1C071C071BACACACAC-
  1147 00007019 1A1C1D1D1C1D1D1D1C-
  1147 00007022 071D1D1D1E1E5B5BFF-
  1147 0000702B FFFFFFFF1E1E1EFFFF-
  1147 00007034 FFFFFFFFFFFFFFFFFF-
  1147 0000703D FFFFFFFFFFFFFFFFFF-
  1147 00007046 FFFFFFFFFF5B1E1E1E-
  1147 0000704F 1E5A1D1D1D1D1D1E1D-
  1147 00007058 1D1E1D0719071D1D1D-
  1147 00007061 1C071AFFFFFFFFFFFF-
  1147 0000706A FFFFFFFFFFFFFFFFFF-
  1147 00007073 FFFFFFFFFFFFFFFFFF-
  1147 0000707C FFFFFFFFFFFFFFFFFF-
  1147 00007085 FFFFFFFFFFFFFFFFFF-
  1147 0000708E FFFFFEFFFFFFFFFFFF-
  1147 00007097 FFFFFFFFFFFFFFFFFF-
  1147 000070A0 FFFFFFFFFFFFFFFFFF-
  1147 000070A9 FFFFFFFFFFFFFFFFFF-
  1147 000070B2 FFFFFFFFFFFFFFFFFF-
  1147 000070BB FFFFFFFFFFFFFFFFFF-
  1147 000070C4 FFFFFFFF5B5B5B5A1D-
  1147 000070CD 1D1A1D1E1D1D07AC1B-
  1147 000070D6 071B07071C07071C1A-
  1147 000070DF ACACACAC1C1D1D1D1D-
  1147 000070E8 1E1D1E1D1D1D1D1E1E-
  1147 000070F1 5A1B5BFFFFFF1E1E1E-
  1147 000070FA 1E1E1EFFFFFFFFFFFF-
  1147 00007103 FFFFFFFFFFFFFFFFFF-
  1147 0000710C FFFFFFFFFFFFFF5B1E-
  1147 00007115 1E1E1E1E1D1D1C1D1D-
  1147 0000711E 1D1D071D1E1D1D07AD-
  1147 00007127 1B1D1D07071C1B1CFF-
  1147 00007130 FFFFFFFFFFFFFFFFFF-
  1147 00007139 FFFFFFFFFFFFFFFFFF-
  1147 00007142 FFFFFFFFFFFFFFFFFF-
  1147 0000714B FFFFFFFFFFFFFFFFFF-
  1147 00007154 FFFFFFFFFFFEFFFFFF-
  1147 0000715D FFFFFFFFFFFFFFFFFF-
  1147 00007166 FFFFFFFFFFFFFFFFFF-
  1147 0000716F FFFFFFFFFFFFFFFFFF-
  1147 00007178 FFFFFFFFFFFFFFFFFF-
  1147 00007181 FFFFFFFFFFFFFFFFFF-
  1147 0000718A FFFFFFFFFFFF5B071E-
  1147 00007193 1D1A1D1D191C1D0707-
  1147 0000719C 1B1A1C1B1B1B1D1D1B-
  1147 000071A5 0707ACADADAD95191D-
  1147 000071AE 1D1D1D1E1E1E1D1D1C-
  1147 000071B7 1D1D1E1D1A1A1B5B1E-
  1147 000071C0 1E1E1E1D1D1D1CFFFF-
  1147 000071C9 FFFFFFFFFFFFFFFFFF-
  1147 000071D2 FFFFFFFFFFFFFFFFFF-
  1147 000071DB FF5B1E1E1D1D1D1C1C-
  1147 000071E4 1D1D1D1E1D1C1D1D1E-
  1147 000071ED 1D1CAD071C07071C1D-
  1147 000071F6 1C1AFFFFFFFFFFFFFF-
  1147 000071FF FFFFFFFFFFFFFFFFFF-
  1147 00007208 FFFFFFFFFFFFFFFFFF-
  1147 00007211 FFFFFFFFFFFFFFFFFF-
  1147 0000721A FFFFFFFFFFFFFFFFFE-
  1147 00007223 FFFFFFFFFFFFFFFFFF-
  1147 0000722C FFFFFFFFFFFFFFFFFF-
  1147 00007235 FFFFFFFFFFFFFFFFFF-
  1147 0000723E FFFFFFFFFFFFFFFFFF-
  1147 00007247 FFFFFFFFFFFFFFFFFF-
  1147 00007250 FFFFFFFFFFFFFFFFFF-
  1147 00007259 5B5B1E1E19071D071B-
  1147 00007262 1D1DACAD1B1BAC1BAC-
  1147 0000726B 1C1D1B1CACADADADAC-
  1147 00007274 AC1A1D1D1D1D1E1E1E-
  1147 0000727D 1C1C1D1D1C1D07071A-
  1147 00007286 1A1D1D1D1E1E1E1E1D-
  1147 0000728F 1C1DFFFFFFFFFFFFFF-
  1147 00007298 FFFFFFFFFFFFFFFFFF-
  1147 000072A1 FFFFFF5B1E1D1E1D1D-
  1147 000072AA 1D1C071C1D1D1E1E1E-
  1147 000072B3 1D1D1D1D1D1AAE1907-
  1147 000072BC 1C1C1C1D1C07FFFFFF-
  1147 000072C5 FFFFFFFFFFFFFFFFFF-
  1147 000072CE FFFFFFFFFFFFFFFFFF-
  1147 000072D7 FFFFFFFFFFFFFFFFFF-
  1147 000072E0 FFFFFFFFFFFFFFFFFF-
  1147 000072E9 FFFFFEFFFFFFFFFFFF-
  1147 000072F2 FFFFFFFFFFFFFFFFFF-
  1147 000072FB FFFFFFFFFFFFFFFFFF-
  1147 00007304 FFFFFFFFFFFFFFFFFF-
  1147 0000730D FFFFFFFFFFFFFFFFFF-
  1147 00007316 FFFFFFFFFFFFFFFFFF-
  1147 0000731F FFFFFF1B1D1E1D1C07-
  1147 00007328 1C1AAC071C1CAD1A1B-
  1147 00007331 1A1B19AD1D1D1C07AE-
  1147 0000733A AE1B071C1C1E1D1D1D-
  1147 00007343 1D1D1D1D1D1D1D1D1D-
  1147 0000734C 1D1B191B0707191D1E-
  1147 00007355 1D1D1D1D1D1CFFFFFF-
  1147 0000735E FFFFFFFFFFFFFFFFFF-
  1147 00007367 FF5BFFFFFF1B1C1D1D-
  1147 00007370 1D1C1C07071C1D1D1C-
  1147 00007379 1C1D1E1E1D1D1D1D1D-
  1147 00007382 1A1A1C1C1C1D1C1C07-
  1147 0000738B 1CFFFFFFFFFFFFFFFF-
  1147 00007394 FFFFFFFFFFFFFFFFFF-
  1147 0000739D FFFFFFFFFFFFFFFFFF-
  1147 000073A6 FFFFFFFFFFFFFFFFFF-
  1147 000073AF FFFFFFFFFFFEFFFFFF-
  1147 000073B8 FFFFFFFFFFFFFFFFFF-
  1147 000073C1 FFFFFFFFFFFFFFFFFF-
  1147 000073CA FFFFFFFFFFFFFFFFFF-
  1147 000073D3 FFFFFFFFFFFFFFFFFF-
  1147 000073DC FFFFFFFFFFFFFFFFFF-
  1147 000073E5 FFFFFFFFFF5A1A1D1D-
  1147 000073EE 1D1D191A07AD1B071A-
  1147 000073F7 1B07071A1D07ADAC1D-
  1147 00007400 1C1BAC071C1D1C071C-
  1147 00007409 1D1C1C1D1C1D1D1D1D-
  1147 00007412 1D1D1D1D1D1C1B1A1D-
  1147 0000741B 1D1C1C1D1D1D1D1C1C-
  1147 00007424 1DFFFFFFFFFFFFFFFF-
  1147 0000742D FFFF1E1E5B5B1E1D1A-
  1147 00007436 191C1D07070707071C-
  1147 0000743F 1E1D1A1A1C1E1D1D1D-
  1147 00007448 1D1D1D1D1B1C1C071C-
  1147 00007451 1C1C1C1C1DFFFFFFFF-
  1147 0000745A FFFFFFFFFFFFFFFFFF-
  1147 00007463 FFFFFFFFFFFFFFFFFF-
  1147 0000746C FFFFFFFFFFFFFFFFFF-
  1147 00007475 FFFFFFFFFFFFFFFFFE-
  1147 0000747E FFFFFFFFFFFFFFFFFF-
  1147 00007487 FFFFFFFFFFFFFFFFFF-
  1147 00007490 FFFFFFFFFFFFFFFFFF-
  1147 00007499 FFFFFFFFFFFFFFFFFF-
  1147 000074A2 FFFFFFFFFFFFFFFFFF-
  1147 000074AB FFFFFFFFFFFFFFFF1A-
  1147 000074B4 1C1D1D1D1D07AD1C1A-
  1147 000074BD 1A071B1A1B1BAC0707-
  1147 000074C6 ADAD1C07071A1C071B-
  1147 000074CF 1A1B071C1C1C1C071C-
  1147 000074D8 07071C1C1C1D1D1D1E-
  1147 000074E1 1D1D1E1D1D1D1D1C1C-
  1147 000074EA 1C1C1C1D1C1CFFFFFF-
  1147 000074F3 FFFFFF1E1E1E1E1E1D-
  1147 000074FC 1C1D1C1C1C1A1A1B1A-
  1147 00007505 AC071D1E1E191B1D1D-
  1147 0000750E 1D1D1D1D1D1D1DAC1B-
  1147 00007517 1C1B1C1C1C1C1C1DFF-
  1147 00007520 FFFFFFFFFFFFFFFFFF-
  1147 00007529 FFFFFFFFFFFFFFFFFF-
  1147 00007532 FFFFFFFFFFFFFFFFFF-
  1147 0000753B FFFFFFFFFFFFFFFFFF-
  1147 00007544 FFFFFEFFFFFFFFFFFF-
  1147 0000754D FFFFFFFFFFFFFFFFFF-
  1147 00007556 FFFFFFFFFFFFFFFFFF-
  1147 0000755F FFFFFFFFFFFFFFFFFF-
  1147 00007568 FFFFFFFFFFFFFFFFFF-
  1147 00007571 FFFFFFFFFFFFFFFF1E-
  1147 0000757A 1E1C191D1D1D1D1D07-
  1147 00007583 AC1C1D1B071CACAC1A-
  1147 0000758C 191A1D0707071C1B1A-
  1147 00007595 1B07ACAC1C1D1C1C1C-
  1147 0000759E 1C0707071A1A1C1C1D-
  1147 000075A7 1D1D1D1E1D1D1D1D1D-
  1147 000075B0 1D1D1C1C1D1D1C1C1C-
  1147 000075B9 1C1C1C1D1D1D1D1E1D-
  1147 000075C2 1D1D1C1C1C1B0707AC-
  1147 000075CB 1A1BACAD1B071D1E07-
  1147 000075D4 1B1C1C1E1D1D1D1D1D-
  1147 000075DD 1D1AAC071B071D071C-
  1147 000075E6 071C1CFFFFFFFFFFFF-
  1147 000075EF FFFFFFFFFFFFFFFFFF-
  1147 000075F8 FFFFFFFFFFFFFFFFFF-
  1147 00007601 FFFFFFFFFFFFFFFFFF-
  1147 0000760A FFFFFFFFFFFEFFFFFF-
  1147 00007613 FFFFFFFFFFFFFFFFFF-
  1147 0000761C FFFFFFFFFFFFFFFFFF-
  1147 00007625 FFFFFFFFFFFFFFFFFF-
  1147 0000762E FFFFFFFFFFFFFFFFFF-
  1147 00007637 FFFFFFFFFFFFFFFFFF-
  1147 00007640 FF1D1D1C181B1D1D1C-
  1147 00007649 1C1D1BAC0707071C1B-
  1147 00007652 ADACAEAEAD1C1D1BAC-
  1147 0000765B 071B1B1A1C65AC1C1D-
  1147 00007664 1C1C071C1C071C1CAD-
  1147 0000766D 1C1D1C1C1D1D1D1D1D-
  1147 00007676 1D1D1D1D1D1C1C1C1C-
  1147 0000767F 1D1D1C1C1C1C1D1D1C-
  1147 00007688 1D1D1D1D1C1C1C0707-
  1147 00007691 1AAC1A1B1B1A1B1C1C-
  1147 0000769A 1D1E1C181D1E1D1D1D-
  1147 000076A3 1D1D1D1D1CADAC191B-
  1147 000076AC 1C1D1C1C1B1A07FFFF-
  1147 000076B5 FFFFFFFFFFFFFFFFFF-
  1147 000076BE FFFFFFFFFFFFFFFFFF-
  1147 000076C7 FFFFFFFFFFFFFFFFFF-
  1147 000076D0 FFFFFFFFFFFFFFFFFE-
  1147 000076D9 FFFFFFFFFFFFFFFFFF-
  1147 000076E2 FFFFFFFFFFFFFFFFFF-
  1147 000076EB FFFFFFFFFFFFFFFFFF-
  1147 000076F4 FFFFFFFFFFFFFFFFFF-
  1147 000076FD FFFFFFFFFFFFFFFFFF-
  1147 00007706 FFFFFF1D1D1C18AC07-
  1147 0000770F 1D1D1A191A1A1A1AAC-
  1147 00007718 1A071AAC19ADF5AD1B-
  1147 00007721 07AC1A1C1C07AC07AC-
  1147 0000772A AD1C1D1D1D1D1D1C1C-
  1147 00007733 1D1CAD1B1D1D1D1C1C-
  1147 0000773C 1D1C1C1C1C1C1C1D1D-
  1147 00007745 1D1A071D1D1D1D1C1D-
  1147 0000774E 1C1C1C1D1D1C1C071C-
  1147 00007757 07071D071A071B071A-
  1147 00007760 1B1C1C1D1D071B1E1D-
  1147 00007769 1D1D1D1D1D1D1D1C1A-
  1147 00007772 AC1A1B1C1C071B1A19-
  1147 0000777B 1B0707FFFFFFFFFFFF-
  1147 00007784 FFFFFFFFFFFFFFFFFF-
  1147 0000778D FFFFFFFFFFFFFFFFFF-
  1147 00007796 FFFFFFFFFFFFFFFFFF-
  1147 0000779F FFFFFEFFFFFFFFFFFF-
  1147 000077A8 FFFFFFFFFFFFFFFFFF-
  1147 000077B1 FFFFFFFFFFFFFFFFFF-
  1147 000077BA FFFFFFFFFFFFFFFFFF-
  1147 000077C3 FFFFFFFFFFFFFFFFFF-
  1147 000077CC FFFFFFFFFF1E1D1C1C-
  1147 000077D5 ACAC1B07ADAEADAE96-
  1147 000077DE ADADAEAE0707AC1B07-
  1147 000077E7 AD1AAC071B1A071C1C-
  1147 000077F0 1B1BAC1A1D1D1D1D1D-
  1147 000077F9 1D1D1D1C1C191B1D1D-
  1147 00007802 1D1D1C1C1C07071C1D-
  1147 0000780B 1C1D1C1D1D1D1D1C1D-
  1147 00007814 1D1C1D1D1C1C1C0707-
  1147 0000781D 1C1C1C1B1A1C1D651B-
  1147 00007826 1B071A1A071D1D1D1D-
  1147 0000782F 1E1D1D1D1D1D1D1D1D-
  1147 00007838 1D1C070707071A19AD-
  1147 00007841 1C1C1C1D1C1C19FFFF-
  1147 0000784A FFFFFFFFFFFFFFFFFF-
  1147 00007853 FFFFFFFFFFFFFFFFFF-
  1147 0000785C FFFFFFFFFFFFFFFFFF-
  1147 00007865 FFFFFFFFFFFEFFFFFF-
  1147 0000786E FFFFFFFFFFFFFFFFFF-
  1147 00007877 FFFFFFFFFFFFFFFFFF-
  1147 00007880 FFFFFFFFFFFFFFFFFF-
  1147 00007889 FFFFFFFFFFFFFFFFFF-
  1147 00007892 FFFFFFFFFFFF5B1E1D-
  1147 0000789B 1D1C07ACADADADAD95-
  1147 000078A4 ADAD95DDADAE95AD1B-
  1147 000078AD ADAE07ACACAD1A1B1B-
  1147 000078B6 1C071C071BAD1C1D1D-
  1147 000078BF 1D1D1D1D1D1D1C1A1A-
  1147 000078C8 181B1D1C1C071C1C1C-
  1147 000078D1 1C1C1C1C1C1C1C1D1D-
  1147 000078DA 1D1D1D1D1D1C1D1C1C-
  1147 000078E3 07071C1C1C1C1B1907-
  1147 000078EC 1C071B1B1BAD071D1C-
  1147 000078F5 1C1D1D1D1D1D1D1D1C-
  1147 000078FE 1C1D1D1C071C1D1C07-
  1147 00007907 1AAD181C1D1D1D1D1A-
  1147 00007910 191BFFFFFFFFFFFFFF-
  1147 00007919 FFFFFFFFFFFFFFFFFF-
  1147 00007922 FFFFFFFFFFFFFFFFFF-
  1147 0000792B FFFFFFFFFFFFFFFFFE-
  1147 00007934 FFFFFFFFFFFFFFFFFF-
  1147 0000793D FFFFFFFFFFFFFFFFFF-
  1147 00007946 FFFFFFFFFFFFFFFFFF-
  1147 0000794F FFFF07071DFFFFFFFF-
  1147 00007958 FFFFFFFFFFFF5B5B1B-
  1147 00007961 1A1D1C070707AD1BAE-
  1147 0000796A 95ACADDDADAD96AEAD-
  1147 00007973 ACAEAD1AAD1AAC96AE-
  1147 0000797C 1C071A1C1AADAD1B1D-
  1147 00007985 1E1E1D1D1D1D1C1C1D-
  1147 0000798E 1CADAD19191C1C1C1C-
  1147 00007997 1C1D1C1C1C1C1C071C-
  1147 000079A0 1C1D1D1D1D1D1D1D1C-
  1147 000079A9 1D1C1C071C1C071C1C-
  1147 000079B2 1B071C070707071BAD-
  1147 000079BB 1B1C1C1B071C1D1D1D-
  1147 000079C4 1D1D1D1D1D07AC1A07-
  1147 000079CD 1D1D1C1B1C1C1C1D1D-
  1147 000079D6 1D1C1A1B1B1DFFFFFF-
  1147 000079DF FFFFFFFFFFFFFFFFFF-
  1147 000079E8 FFFFFFFFFFFFFFFFFF-
  1147 000079F1 FFFFFFFFFFFFFFFFFF-
  1147 000079FA FFFFFEFFFFFFFFFFFF-
  1147 00007A03 FFFFFFFFFFFFFFFFFF-
  1147 00007A0C FFFFFFFFFFFFFFFFFF-
  1147 00007A15 FFFFFFFF5C1A1A1A5C-
  1147 00007A1E FFFFFFFFFFFFFFFF5B-
  1147 00007A27 1B191A1C1C1D07071B-
  1147 00007A30 1A1D1B1AAC07ACACAD-
  1147 00007A39 95AEAD071AAD071C07-
  1147 00007A42 1CADAD07071C1C1AAE-
  1147 00007A4B AC1C1D1D1D1D1C1C1C-
  1147 00007A54 1C1C1C1C191A1D1A1C-
  1147 00007A5D 1D1D1C1C1D1C070707-
  1147 00007A66 1D1D1C1C1C1D1D1D1C-
  1147 00007A6F 1C1D1C1C1C07070707-
  1147 00007A78 071C1C1C1C0707071B-
  1147 00007A81 071BACAC1B1C1C1C1D-
  1147 00007A8A 1C1D1D1D1D1C65651A-
  1147 00007A93 951B1C1D1D1D1A1C1C-
  1147 00007A9C 1D1D1D1C071A191B1B-
  1147 00007AA5 1DFFFFFFFFFFFFFFFF-
  1147 00007AAE FFFFFFFFFFFFFFFFFF-
  1147 00007AB7 FFFFFFFFFFFFFFFFFF-
  1147 00007AC0 FFFFFFFFFFFEFFFFFF-
  1147 00007AC9 FFFFFFFFFFFFFFFFFF-
  1147 00007AD2 FFFFFFFFFFFFFFFFFF-
  1147 00007ADB FFFFFFFFFFFF075C1A-
  1147 00007AE4 075B5BFFFF1E1E5B5B-
  1147 00007AED 1E1E1D1A191C1CAC07-
  1147 00007AF6 070707071C1CADADAC-
  1147 00007AFF 071BACADDD1A0707AD-
  1147 00007B08 AD07AC071C071B071D-
  1147 00007B11 071C1B1A191C1C1B1C-
  1147 00007B1A 071C1C1C1C1C1D1C1C-
  1147 00007B23 1C1C071C1C1C1D1D1D-
  1147 00007B2C 1C1C1C1D1D1C1C1D1D-
  1147 00007B35 1D1D1C1C1C1C1C0707-
  1147 00007B3E 0707071C1C1C070707-
  1147 00007B47 070707071B1AAC1A07-
  1147 00007B50 1B1A1C1C1C1C1C1C1C-
  1147 00007B59 1C1CACAC1C1D1C1D1D-
  1147 00007B62 1B1C1C071C1C1C1C07-
  1147 00007B6B 1C1C0707FFFFFFFFFF-
  1147 00007B74 FFFFFFFFFFFFFFFFFF-
  1147 00007B7D FFFFFFFFFFFFFFFFFF-
  1147 00007B86 FFFFFFFFFFFFFFFFFE-
  1147 00007B8F FFFFFFFFFFFFFFFFFF-
  1147 00007B98 FFFFFFFFFFFFFFFFFF-
  1147 00007BA1 FFFFFFFFFFFFFFFF5C-
  1147 00007BAA 075C5B1A5B5BFF5B1E-
  1147 00007BB3 1E1D1E1D1D19191D1D-
  1147 00007BBC 1B1A071B07071A071D-
  1147 00007BC5 ACAC1A1C1BAC1BAC07-
  1147 00007BCE 07071D071BACAD0707-
  1147 00007BD7 071C1D1D071B1AADAD-
  1147 00007BE0 071A1B071C1C1C0707-
  1147 00007BE9 1D1E1C1C1D1C1A071D-
  1147 00007BF2 1D1D1D1D1D1D1D1C1C-
  1147 00007BFB 1D1D071D1D1C1C1C1C-
  1147 00007C04 1C071B0707071C1C07-
  1147 00007C0D 0707070707071C1BAC-
  1147 00007C16 1A071B1B191D1C1C1C-
  1147 00007C1F 1C1C07071BAC1B1D1D-
  1147 00007C28 1D1D1D1D1D1D1D1C07-
  1147 00007C31 1A1A1D1E1D071C07FF-
  1147 00007C3A FFFFFFFFFFFFFFFFFF-
  1147 00007C43 FFFFFFFFFFFFFFFFFF-
  1147 00007C4C FFFFFFFFFFFFFFFFFF-
  1147 00007C55 FFFFFEFFFFFFFFFFFF-
  1147 00007C5E FFFFFFFFFFFFFFFFFF-
  1147 00007C67 FFFFFFFFFFFFFFFFFF-
  1147 00007C70 FFFF5C5B5B1E5B1B5A-
  1147 00007C79 1D1D1E1D1D1D1D1D18-
  1147 00007C82 071D07071B0707071A-
  1147 00007C8B ADAC071BAEAC1C071C-
  1147 00007C94 1D071C071B1D076507-
  1147 00007C9D AC1B07AC1C1D1D1D1B-
  1147 00007CA6 1AADAE1A1C1C1C1C1C-
  1147 00007CAF 1C1D1A1A1D1A1D1A07-
  1147 00007CB8 191B1D1D1D1D1D1D1D-
  1147 00007CC1 1D1D1C1C1D1C1C1D1C-
  1147 00007CCA 1C071C071B1B1B0707-
  1147 00007CD3 1C070707070707071C-
  1147 00007CDC 1D1B1B07071A1A191C-
  1147 00007CE5 1D1C0707071B1B1AAC-
  1147 00007CEE 1B1D1C1C1D1D1D0707-
  1147 00007CF7 1C1C1D1AAC071D1E1D-
  1147 00007D00 1D1C1CFFFFFFFFFFFF-
  1147 00007D09 FFFFFFFFFFFFFFFFFF-
  1147 00007D12 FFFFFFFFFFFFFFFFFF-
  1147 00007D1B FFFFFFFFFFFEFFFFFF-
  1147 00007D24 FFFFFFFFFFFFFFFFFF-
  1147 00007D2D FFFFFFFFFFFFFFFFFF-
  1147 00007D36 FFFFFFFF5B5B5B5B5B-
  1147 00007D3F 1D1A1D1C1D1D1C1D1C-
  1147 00007D48 1D1C1B1C1C1C1C1C1B-
  1147 00007D51 1B1B1B1995AD1AADAD-
  1147 00007D5A 1C071D1C191C1B1C1C-
  1147 00007D63 071C65071A1B1B1D1D-
  1147 00007D6C 1D1D07AEACAC071D1C-
  1147 00007D75 1C1C1D1D1D1C1C1D1C-
  1147 00007D7E 1D0719AD191D1D1C1C-
  1147 00007D87 1C1D1D1D07071C1D1D-
  1147 00007D90 1D1C071C1C1C1C0707-
  1147 00007D99 1B071C1C0707070707-
  1147 00007DA2 07071C1D1C1B07071A-
  1147 00007DAB 1C1C1D1C0707071B1B-
  1147 00007DB4 1A1BAC071C071C1C1C-
  1147 00007DBD 1D191A071D1D1C1C1D-
  1147 00007DC6 1E1E1E1D1D191DFFFF-
  1147 00007DCF FFFFFFFFFFFFFFFFFF-
  1147 00007DD8 FFFFFFFFFFFFFFFFFF-
  1147 00007DE1 FFFFFFFFFFFFFFFFFE-
  1147 00007DEA FFFFFFFFFFFFFFFFFF-
  1147 00007DF3 FFFFFFFFFFFFFFFFFF-
  1147 00007DFC FFFFFFFFFFFF5B5B5B-
  1147 00007E05 1D1D1C1D1C1C181B07-
  1147 00007E0E 1C071A1C1C071C1C1C-
  1147 00007E17 07071A1A07071C1AAE-
  1147 00007E20 AE1BAC1D1D1D1C191A-
  1147 00007E29 1A1D1D1D1D1D071B1A-
  1147 00007E32 1C1D1D1D1D1D1BAC1B-
  1147 00007E3B 1B1C1C1C1D1C1C1D1D-
  1147 00007E44 1D1E1D1D1E1C18AC1D-
  1147 00007E4D 1D1D1D1D1D1D1D1C1A-
  1147 00007E56 1D1D1D1C07071C071C-
  1147 00007E5F 071B1C1C1C1C07071C-
  1147 00007E68 070707071C1C1C1C1B-
  1147 00007E71 071B1C1C1C1C07071B-
  1147 00007E7A 1B1B1B1B1BAC1C1C1B-
  1147 00007E83 1C1C071C1D1B1C1D1D-
  1147 00007E8C 1D1D1D1E1E5B1E1D1C-
  1147 00007E95 1D1DFFFFFFFFFFFFFF-
  1147 00007E9E FFFFFFFFFFFFFFFFFF-
  1147 00007EA7 FFFFFFFFFFFFFFFFFF-
  1147 00007EB0 FFFFFEFFFFFFFFFFFF-
  1147 00007EB9 FFFFFFFFFFFFFFFFFF-
  1147 00007EC2 FFFFFFFFFFFFFFFF1E-
  1147 00007ECB 5B1E1E1D1C1D07071B-
  1147 00007ED4 AC07071A1C071C1D1D-
  1147 00007EDD 1B071C1A1A071BACAD-
  1147 00007EE6 1C1CADADAC071D1D1D-
  1147 00007EEF 1D1D1A1D1D1A1D1D1D-
  1147 00007EF8 1D1C071D1D1E1D1D1D-
  1147 00007F01 1D1C1A071C1C1E1C1C-
  1147 00007F0A 1C1C1C1D1D1D1D1D1E-
  1147 00007F13 1B1A1C1D1D1D1E1E1E-
  1147 00007F1C 1D1D1C1D1D07071C07-
  1147 00007F25 1C1C1D07071C071C1C-
  1147 00007F2E 1B1C1C07071B071C1C-
  1147 00007F37 1C1C07071B071C1C1C-
  1147 00007F40 1C07071B1B1B1B1A1A-
  1147 00007F49 1C1D07071D1D071D1C-
  1147 00007F52 1C1D1D1C071D1E1E5B-
  1147 00007F5B 1E1E1D1D1C1DFFFFFF-
  1147 00007F64 FFFFFFFFFFFFFFFFFF-
  1147 00007F6D FFFFFFFFFFFFFFFFFF-
  1147 00007F76 FFFFFFFFFFFEFFFFFF-
  1147 00007F7F FFFFFFFFFFFFFFFFFF-
  1147 00007F88 FFFFFFFFFFFFFFFFFF-
  1147 00007F91 FF1E5B1D1D1D07181C-
  1147 00007F9A 1BF4AC1C1C1C191A1D-
  1147 00007FA3 1D1C071C070707AC07-
  1147 00007FAC 1AAEAC1C1C1BAC1B1D-
  1147 00007FB5 1E1D1D1E5B1E1E1B1A-
  1147 00007FBE 1D07071D1D1D1D1D1D-
  1147 00007FC7 1E1D1D1E1D1C1C071D-
  1147 00007FD0 1D1C1D1C1A071D1D1D-
  1147 00007FD9 1D1D1D1C651D1D1D1E-
  1147 00007FE2 1E1E1D1D1D1C1C1C1C-
  1147 00007FEB 1C1C1C1C1C1D1D1C1C-
  1147 00007FF4 1B1C1C1B071C070707-
  1147 00007FFD 1C1C1D1C1C1C1B0707-
  1147 00008006 1C1C1C1C1C07071B1B-
  1147 0000800F 1B07071D1D1D1A1D1D-
  1147 00008018 1D1D1D1C1D1D1C1D1A-
  1147 00008021 1D1E1E1E1E1B1A1D1D-
  1147 0000802A 1DFFFFFFFFFFFFFFFF-
  1147 00008033 FFFFFFFFFFFFFFFFFF-
  1147 0000803C FFFFFFFFFFFFFFFFFE-
  1147 00008045 FFFFFFFFFFFFFFFFFF-
  1147 0000804E FFFFFFFFFFFFFFFFFF-
  1147 00008057 FFFFFF1E5B1A1D1C18-
  1147 00008060 AC070719F6161C1D1D-
  1147 00008069 19AE071D1C1A071D1D-
  1147 00008072 1CADAC070707071A1B-
  1147 0000807B 071C1D1D1D1E5B1E1E-
  1147 00008084 1B1A1C1D1C0707071C-
  1147 0000808D 1C1D1D1E1D1B071D1D-
  1147 00008096 1C071C1C1D071C1C1C-
  1147 0000809F 1D1C1C1C1C651C1D1D-
  1147 000080A8 1E0F1E1E5B5B1D1D1D-
  1147 000080B1 1C1C1D1D1C1D1D1D1D-
  1147 000080BA 1D1D1D071C1C1A1B07-
  1147 000080C3 0707071C1C1D1D1C07-
  1147 000080CC 1B071C1C1C1C1C0707-
  1147 000080D5 1B1B1B1B1A1C1C1D1D-
  1147 000080DE 1D1E1D1C1C1C1A1A19-
  1147 000080E7 071D1D1D1E1E1E1E1B-
  1147 000080F0 081E1D1C1C1C1B1AFF-
  1147 000080F9 FFFFFFFFFFFFFFFFFF-
  1147 00008102 FFFFFFFFFFFFFFFFFF-
  1147 0000810B FFFFFEFFFFFFFFFFFF-
  1147 00008114 FFFFFFFFFFFFFFFFFF-
  1147 0000811D FFFFFFFF1E1E1E5A1D-
  1147 00008126 1C181BAC1B1A191518-
  1147 0000812F 1B1D1D1CAC181A071C-
  1147 00008138 1A1C1E1CACAC1B1C1C-
  1147 00008141 1C071B1D071D1E1E1E-
  1147 0000814A 5B1E5B1B1A191D0707-
  1147 00008153 1C1C1D1D1C1C1D0707-
  1147 0000815C 19181C1C1C1C1D1D1C-
  1147 00008165 071D1C1C1C1D1C1D65-
  1147 0000816E 1C651E5B5B5B5B5B5B-
  1147 00008177 1E1D1C1C071C1D1D1C-
  1147 00008180 1D1D1D1D1D1D1D1C07-
  1147 00008189 071A1B1B1A07071C1C-
  1147 00008192 1D1C1C1C071C1C1C1C-
  1147 0000819B 0707071B1B1B071B1C-
  1147 000081A4 1D1D5B1E5B1E1C1D07-
  1147 000081AD ACAD1A1C1D1D1D1E1D-
  1147 000081B6 1E1E5B1E5B1D1D071C-
  1147 000081BF 071A0707FFFFFFFFFF-
  1147 000081C8 FFFFFFFFFFFFFFFFFF-
  1147 000081D1 FFFFFFFFFFFEFFFFFF-
  1147 000081DA FFFFFFFFFFFFFFFFFF-
  1147 000081E3 FFFFFFFFFFFFFF5B1E-
  1147 000081EC 1E1E1D18AC1AAC1907-
  1147 000081F5 AD181919071D1E1B19-
  1147 000081FE 1C1D1D191C1E070819-
  1147 00008207 071C07071C1D1D1C1D-
  1147 00008210 1C1D5B5B1E075A1D1D-
  1147 00008219 1C1C1D1C1D1D1D1D1C-
  1147 00008222 1C07071B1A1A1C1B1C-
  1147 0000822B 1E1A1A1C1C071C1D1D-
  1147 00008234 1C651C651D5B5B5B5B-
  1147 0000823D 1E5B5B1D1D1C07071C-
  1147 00008246 1C1C1D1C1D1D1D1D1C-
  1147 0000824F 1D1D07071B1B1B1A07-
  1147 00008258 071C1C1C1C1C07071C-
  1147 00008261 071C1C1C1C07071B07-
  1147 0000826A 1C071C1D5A075B1E1E-
  1147 00008273 1D1D1AAC071E1D1D1C-
  1147 0000827C 1D1D1D1E1E5B1E5B1D-
  1147 00008285 1D1C1D1C1B071A071D-
  1147 0000828E FFFFFFFFFFFFFFFFFF-
  1147 00008297 FFFFFFFFFFFFFFFFFE-
  1147 000082A0 FFFFFFFFFFFFFFFFFF-
  1147 000082A9 FFFFFFFFFFFFFFFFFF-
  1147 000082B2 5C5B1E1D1D07ACADAC-
  1147 000082BB AC1A071AAD071B071D-
  1147 000082C4 1D1D1D1E1E1C161C1E-
  1147 000082CD 1A08AD1B1C071B1D1D-
  1147 000082D6 1C1C1D1D1E5B5B1E1B-
  1147 000082DF 1D1D1D1D1D1C1D1D1D-
  1147 000082E8 1D1C071D07071C071B-
  1147 000082F1 AD1A1D1E1C07070707-
  1147 000082FA 1C1D1C1C1C1D1D1D5B-
  1147 00008303 5B5B5B5B5A1D1D1D1C-
  1147 0000830C 071B071C1C1D1C1D1D-
  1147 00008315 1D1D1D1C1D1C07071B-
  1147 0000831E 1C1C1C1C1D1C1C1C1C-
  1147 00008327 0707071C1C1C1C0707-
  1147 00008330 07071C1C1C1D1D5B5B-
  1147 00008339 5B1E1E1C1D1AAC1D1D-
  1147 00008342 1D1D1D1D1D1D1D1E5B-
  1147 0000834B 5B5B1D1C071D1D1D1D-
  1147 00008354 1C070707FFFFFFFFFF-
  1147 0000835D FFFFFFFFFFFFFFFFFF-
  1147 00008366 FFFFFEFFFFFFFFFFFF-
  1147 0000836F FFFFFFFFFFFFFFFFFF-
  1147 00008378 FFFF5C5C1E1E1A071C-
  1147 00008381 AC18AE1A191CAC191D-
  1147 0000838A 1D1C1D1D1C1D1D1E1A-
  1147 00008393 AC1D1E0719ADAD1C1A-
  1147 0000839C 1C1D1D1C1D1C1E1E1E-
  1147 000083A5 5B5B1D1D1D1D1D1D1C-
  1147 000083AE 1D1D1D1D1D1C1D1D07-
  1147 000083B7 1B1C1DACAD071E1D1D-
  1147 000083C0 1C071C1C1C071C1D1D-
  1147 000083C9 1D5B5B5B5B5B5A1D1D-
  1147 000083D2 1C1C1C071A1C1C071D-
  1147 000083DB 1D1C1C1D1D1D1D1C1D-
  1147 000083E4 1C1B071D1C1C1C1C1C-
  1147 000083ED 1C1C1C07071C1C071C-
  1147 000083F6 1C07071C1C1C1D1D1D-
  1147 000083FF 5B5B5B1E1E1D1C1C07-
  1147 00008408 1A1C1D1D1D1D1D1C1D-
  1147 00008411 1E1E5B5B1E1D1C1C1C-
  1147 0000841A 1D1C1C1D07071C1CFF-
  1147 00008423 FFFFFFFFFFFFFFFFFF-
  1147 0000842C FFFFFFFFFFFEFFFFFF-
  1147 00008435 FFFFFFFFFFFFFFFFFF-
  1147 0000843E FFFFFFFF5C1E1E1E1E-
  1147 00008447 1C1D07AC071B07071D-
  1147 00008450 191B1C1D1D1D1C1C1A-
  1147 00008459 1B1E1D1D1D1D1C1CAD-
  1147 00008462 181C071B1D1D1C1D1C-
  1147 0000846B 1E5B5B5B5B1C1C1D1D-
  1147 00008474 1D1D071C1D1D1D1C07-
  1147 0000847D 1C1D07071D1DADAD07-
  1147 00008486 1D1D6507071C071C1D-
  1147 0000848F 651D1D1E5B5B5B5B5B-
  1147 00008498 1D1D1C071C07070707-
  1147 000084A1 1C07071D1C1C1C1C1D-
  1147 000084AA 1D1C1D1D07071D1D1C-
  1147 000084B3 1C1C1C1C1C071B1B07-
  1147 000084BC 071C1C071C1C1C1D1D-
  1147 000084C5 1D5A5B5B075B1E1D1C-
  1147 000084CE 1C0707070707071C07-
  1147 000084D7 071D1D1D1D5B5B5B1D-
  1147 000084E0 1C1B071D1C071C1C1D-
  1147 000084E9 1D1DFFFFFFFFFFFFFF-
  1147 000084F2 FFFFFFFFFFFFFFFFFE-
  1147 000084FB FFFFFFFFFFFFFFFFFF-
  1147 00008504 FFFFFFFFFFFF5C1E1E-
  1147 0000850D 1E1E1E1D1CACAC1A07-
  1147 00008516 071C1D191B1A1D1D1D-
  1147 0000851F 1A1B071A1D1D1D1D1C-
  1147 00008528 071BACAD1A1D1B1D1D-
  1147 00008531 1C1D1E1E5B5B5B5B1B-
  1147 0000853A 1C1D1C1D1D1D1D1D1D-
  1147 00008543 1D1C071C07071C1D1C-
  1147 0000854C ADAD1B071D1C071C1C-
  1147 00008555 1C1C651D1E5A5B5B5B-
  1147 0000855E 5B5B5B1D1D1C070707-
  1147 00008567 071C07071C071C1D1C-
  1147 00008570 1C1C1D1D1D1C1D1D1C-
  1147 00008579 1C1C1C1C1C1C1C1C1B-
  1147 00008582 1B1C07071C071C1D1D-
  1147 0000858B 1D1D1E5B5B5B5B071E-
  1147 00008594 1E1C1C07071B1B071B-
  1147 0000859D 1B071C071C071A5B1E-
  1147 000085A6 5B5B1D1C18071D1D1D-
  1147 000085AF 071C1C1D1DFFFFFFFF-
  1147 000085B8 FFFFFFFFFFFFFFFFFF-
  1147 000085C1 FFFFFEFFFFFFFFFFFF-
  1147 000085CA FFFFFFFFFFFFFFFF5C-
  1147 000085D3 1E1E1E1E1E1E1D1C1A-
  1147 000085DC 19AD1A1B071D1B18AD-
  1147 000085E5 1D1D1D191B071A1D1D-
  1147 000085EE 1D1D1D1BADAD191C1D-
  1147 000085F7 1C1E1D1B1E1E1E1E1E-
  1147 00008600 5B1D191D1D1D1C1B1B-
  1147 00008609 1D1E1D1C1D0707071C-
  1147 00008612 1D1D1C1B19AD1B651C-
  1147 0000861B 1C1C071C1D0F1E5B5B-
  1147 00008624 5B5B5C5B5B0F1E1C1C-
  1147 0000862D 071B07071C07071C1C-
  1147 00008636 071C1C1C1D1C1D1D1C-
  1147 0000863F 1C1D1D1C1C071C1C07-
  1147 00008648 1C1C1B1B1C0707071D-
  1147 00008651 1D1D1E1E5B5B5B5B5B-
  1147 0000865A 5B1B1D1C1C1C07071A-
  1147 00008663 1B0707071B1C070719-
  1147 0000866C 1D1E1E5B5B1D1C1A1D-
  1147 00008675 1C1D1D1D1C1D1D1C1C-
  1147 0000867E FFFFFFFFFFFFFFFFFF-
  1147 00008687 FFFFFFFFFFFEFFFFFF-
  1147 00008690 FFFFFFFFFFFFFFFFFF-
  1147 00008699 FFFF5C1E1E1E1E1E1D-
  1147 000086A2 1D1C1A1AAD1A071919-
  1147 000086AB 1D07071D1D1D1D1C1C-
  1147 000086B4 1C1D1D1D1D1D19ADAE-
  1147 000086BD 1A1D1C071D1D1D1E1E-
  1147 000086C6 5B1E1E5B1A1C07ACAC-
  1147 000086CF ADADF61A1D1D1C1D1C-
  1147 000086D8 0707071C071D1E1CAC-
  1147 000086E1 1C6507071C1C1D1E5B-
  1147 000086EA 5B5B5B5B5C0F5B5B1D-
  1147 000086F3 1D1C1C071A0707071B-
  1147 000086FC 1B1C1C651D1C071D1C-
  1147 00008705 1C1D1D1C1C1D1D1C07-
  1147 0000870E 1C1C071C1C071B0707-
  1147 00008717 1C1D1D1D1E5B5B5B5B-
  1147 00008720 5B5B1E5B1A1A190765-
  1147 00008729 1C071B1B1B0707071C-
  1147 00008732 1C1C1C1E1E1E5B5B1D-
  1147 0000873B 19AC071C1C1D1E1D1C-
  1147 00008744 1D1C1D1DFFFFFFFFFF-
  1147 0000874D FFFFFFFFFFFFFFFFFE-
  1147 00008756 FFFFFFFFFFFFFFFFFF-
  1147 0000875F FFFFFFFF5C5C1E1E1E-
  1147 00008768 1E1D1D1D1C1AAEAD19-
  1147 00008771 1BAEAEAD1C1D1D1D1D-
  1147 0000877A 1D1E1D1D1D1D1D1D1C-
  1147 00008783 19AD1A1D1D1C1C1D1D-
  1147 0000878C 1D655B5B1E5B081A07-
  1147 00008795 F4DEAEADF5DD1A1D1C-
  1147 0000879E AD071C071C071C1A1B-
  1147 000087A7 1C1D1C1D1C071C1C1D-
  1147 000087B0 1E5B5B5B0F5B5B5B0F-
  1147 000087B9 5B1E1D1C1C071B1B07-
  1147 000087C2 07ACAD1B1C1C1C1C1C-
  1147 000087CB 1B071C1C1C1D1D1C1D-
  1147 000087D4 1D1D1C1C071C1C1C07-
  1147 000087DD 07071C1D1D1D1E1E5B-
  1147 000087E6 5B5B5B5B1E1E1D1919-
  1147 000087EF AC1B1C0707071B0707-
  1147 000087F8 1C1C1C1C1C1E1E1E1E-
  1147 00008801 5B1B1D1D1C1C1C1C1D-
  1147 0000880A 1D1D1C1D1D1D1D1CFF-
  1147 00008813 FFFFFFFFFFFFFFFFFF-
  1147 0000881C FFFFFEFFFFFFFFFFFF-
  1147 00008825 FFFFFFFFFFFF5B5B1E-
  1147 0000882E 1E1E1E1D1D1D1D1D1A-
  1147 00008837 F6AEACADF6F5AD071D-
  1147 00008840 1D1C1D1D1D1C1D1D1D-
  1147 00008849 1D1CAC071A071B1D1C-
  1147 00008852 1C1D1D651D1E5B5BA9-
  1147 0000885B 921919DCDD1919ADF5-
  1147 00008864 1B1CACAD1C071C1C1B-
  1147 0000886D 19ADAD191D1D1C1B1C-
  1147 00008876 1C1C1D5A5B5B5B5B5B-
  1147 0000887F 1E5B5B5B1D1D1D651C-
  1147 00008888 1C07071B95AD1A651C-
  1147 00008891 0707071D1C1A071D1C-
  1147 0000889A 1D1D1C1D1D1D1C1C1C-
  1147 000088A3 070707071C1D1D1E1E-
  1147 000088AC 1E5B5B5B5B5B1E1E1D-
  1147 000088B5 1C0707AC95071C1B1B-
  1147 000088BE 071C1C1C1C1C1C1D1E-
  1147 000088C7 1E1E5B5B1D1D1D1D1D-
  1147 000088D0 1C1C1C1D1D1D1D1D1D-
  1147 000088D9 1C1C1DFFFFFFFFFFFF-
  1147 000088E2 FFFFFFFFFFFEFFFFFF-
  1147 000088EB FFFFFFFFFFFFFF5B5B-
  1147 000088F4 5B5B1E1E1E1D1D1C1D-
  1147 000088FD 1D1DADF6F5ACF5AEAD-
  1147 00008906 AD1C1D1D1C1D1D1D07-
  1147 0000890F 1AAD1A1D1AAD1B1C1C-
  1147 00008918 1A1D1C1C1D651D1E1E-
  1147 00008921 5B07A81D1C18DCF4AD-
  1147 0000892A 1AADAEAC1CAD1C0707-
  1147 00008933 0707ACACACADAD1C65-
  1147 0000893C 1C071C1C1C1D1D5B1E-
  1147 00008945 5B5B5B5B5B1E1D1D1D-
  1147 0000894E 1C651C1A1BACAD95AC-
  1147 00008957 1A071B1B1A071C1CAC-
  1147 00008960 1A071D1C1C1C1D1C1D-
  1147 00008969 1D1C1C07071C071C1D-
  1147 00008972 1E1E1E5B5B5B5B5A1E-
  1147 0000897B 1D1D1D1C071AAC95AD-
  1147 00008984 ACAD1B071C1C1C1C1C-
  1147 0000898D 1D1E1E1E1E1E1E1D1D-
  1147 00008996 1C071C1D1D1D1C1D1D-
  1147 0000899F 1D1D1D1D1D1D1CFFFF-
  1147 000089A8 FFFFFFFFFFFFFFFFFE-
  1147 000089B1 FFFFFFFFFFFFFFFFFF-
  1147 000089BA 071E1E1B1A1D1D1D1D-
  1147 000089C3 1D1D1D1D1DADF6F5AD-
  1147 000089CC F519ADAD1B1D1D1D1D-
  1147 000089D5 1D1D1BADAD1A1BACAD-
  1147 000089DE 1B1A1C071D1C651C1D-
  1147 000089E7 1D1E5B5B921A1E1DAC-
  1147 000089F0 1AF4AE1AAEAD07AD1A-
  1147 000089F9 1C07071AACADADADF5-
  1147 00008A02 AC1C1C1C1C1B07071D-
  1147 00008A0B 1D1D1D651D1D1D1D1A-
  1147 00008A14 191C6565651BADACAD-
  1147 00008A1D ACAEAD1BACAD95AD65-
  1147 00008A26 1C1C1B1A191C651C1D-
  1147 00008A2F 1C1C1D1D1C07071C1C-
  1147 00008A38 1C1C1D1E1E1E5B5B5B-
  1147 00008A41 1E1D1D1D1D1C071A1B-
  1147 00008A4A 95ADDD95AC07651C1C-
  1147 00008A53 071C1C1D1E1E1E1E1E-
  1147 00008A5C 1D1D1C1A1A1C1D1D1D-
  1147 00008A65 1D1D1D1D1D1D1D1D1C-
  1147 00008A6E 1A1B07FFFFFFFFFFFF-
  1147 00008A77 FFFFFEFFFF5CFFFFFF-
  1147 00008A80 FF5B1E5B1E1E1D1C1C-
  1147 00008A89 1D1D1D1C1C1D1D1DAD-
  1147 00008A92 DEF6ACDEACAD071C1D-
  1147 00008A9B 1D1D1C1D1D07AC1D1D-
  1147 00008AA4 ACF5AD1BAC1C1D1C1C-
  1147 00008AAD 1C1D1D1E1E5B1B1B1D-
  1147 00008AB6 1D1DAC1AF4DDACF519-
  1147 00008ABF 1CAE0707071B19ADAD-
  1147 00008AC8 ADADF507651C07071A-
  1147 00008AD1 071C1D1C1C1C1D1D07-
  1147 00008ADA 071C19180765651CAD-
  1147 00008AE3 ACACAC1B1AACAD951A-
  1147 00008AEC ACAD1C071B1D071AAC-
  1147 00008AF5 071C1C1C1C1C1C1C1C-
  1147 00008AFE 071C1C1C1C1D5B1E5B-
  1147 00008B07 5B5B1D1D1D1D1C1C1C-
  1147 00008B10 1B1A1B959595951B1B-
  1147 00008B19 1C1C1C071C1C1D1E1E-
  1147 00008B22 1E5A1D1D1C071A071C-
  1147 00008B2B 1D1D1D1D1D1D1D1D1D-
  1147 00008B34 1D1D1D19191C1CFFFF-
  1147 00008B3D FFFFFFFFFFFEFF5C0F-
  1147 00008B46 5B1D5B1E1E1D1D1E1E-
  1147 00008B4F 1D1D1D1C1C1C071D1D-
  1147 00008B58 1D1DADDEAE19DDAE1A-
  1147 00008B61 1D1D1D1D1D1D1D1D1C-
  1147 00008B6A 071D1D07ADADAC1A07-
  1147 00008B73 1C1C07651D1D1D5B5B-
  1147 00008B7C 5B5A16191CF4ADDEDD-
  1147 00008B85 ADAD1B1AAD651A1B1A-
  1147 00008B8E ADACADAEAD1B651C65-
  1147 00008B97 ACAC650707071C1C1C-
  1147 00008BA0 6565ACAC0707AC1C1D-
  1147 00008BA9 6507071BAC1A1B1B07-
  1147 00008BB2 ADAD1B1C1A071D071C-
  1147 00008BBB 1D1BACACAD1C65071C-
  1147 00008BC4 1C1C071B07651C1C1D-
  1147 00008BCD 1E5B5B1E1D1D1D1D1C-
  1147 00008BD6 1C1C1C1C071A95951A-
  1147 00008BDF AC1A1C1C1C0707071C-
  1147 00008BE8 1D651E1E1D191CACAC-
  1147 00008BF1 1A1C1D1D1D1C1C1D1D-
  1147 00008BFA 1D1D1D1D1D1D1D1B07-
  1147 00008C03 071C07FFFFFFFFFFFE-
  1147 00008C0C 5C5C5C5B1B5B1E1E1B-
  1147 00008C15 1C1D1D1D1D1D1D1C1D-
  1147 00008C1E 071D1D1D1D19DE191A-
  1147 00008C27 F6ADAC071D1D1D1D1D-
  1147 00008C30 1D1D07191C1D1C0707-
  1147 00008C39 AC07071C1C1A071D1D-
  1147 00008C42 1D5B5B1E1D161807F4-
  1147 00008C4B F4DEDEACDD1AAD1A07-
  1147 00008C54 AD1AAD1AADF5ADAD1C-
  1147 00008C5D 1C651BAE0707AD071C-
  1147 00008C66 65651C1CAC95ACAC07-
  1147 00008C6F 1C1C1C651C651B1AAC-
  1147 00008C78 ACADACAC1AAD1A1A1A-
  1147 00008C81 1D1B071D07ADF5F5AD-
  1147 00008C8A AC1B1C1C1C1C1C071B-
  1147 00008C93 071C1D1D1D1D1D1D1D-
  1147 00008C9C 1D071C1C1C1C07071B-
  1147 00008CA5 ACADAC1AAC1C1C0707-
  1147 00008CAE 0707AC1D1C1D1D0718-
  1147 00008CB7 1C1AAC071C1C1C1C1C-
  1147 00008CC0 1C1C1D1D1D1D1D1D1D-
  1147 00008CC9 1D1D071A071BADFFFF-
  1147 00008CD2 FFFFFE5C5C5C071A1D-
  1147 00008CDB 1E1D071C1D1D1D1D1D-
  1147 00008CE4 1D1C1C1D1D1C1D1C07-
  1147 00008CED F5AD1BF619AD191D1D-
  1147 00008CF6 1D1D1D1D1D1CAC0707-
  1147 00008CFF 1B1A1A1C1C1B1C651B-
  1147 00008D08 071C071A1B1B1E1A15-
  1147 00008D11 18ACF4DDDEDE191A07-
  1147 00008D1A AD07ACADADAD1B1BAD-
  1147 00008D23 ACAC1C6507AC1B1B1B-
  1147 00008D2C 1B07651C1D65ACDEAC-
  1147 00008D35 1B9607651C651B0765-
  1147 00008D3E ACADAD9595ADADADAD-
  1147 00008D47 1AAD1A1CAD1D1D07AC-
  1147 00008D50 F6ADACAEAC1C071C1D-
  1147 00008D59 1C07AC1A651D1D1D1D-
  1147 00008D62 1C1D1D1C071C1C1C07-
  1147 00008D6B 071C1B1AACACACAC1C-
  1147 00008D74 1C0707071AAC1C1D1D-
  1147 00008D7D 1D1C071C1C1B07651C-
  1147 00008D86 1C1C1C1C1C1C1D1D1D-
  1147 00008D8F 1D1D1D1D1D1D070707-
  1147 00008D98 AC1CFFFFFFFE       
  1148 00008D9E 4227                    mountainsize:dw 10050
  1149                                  
  1150 00008DA0 FFFFFFFFFFFFFFFFFF-     treeline:db 255,255,255,255,255,255,255,255,255,255,255,255,255,255,255,255,255,255,255,255,255,255,255,255,255,255,255,255,255,255,255,255,255,255,255,255,255,255,255,255,255,255,255,255,255,255,255,255,255,255,255,255,255,255,255,255,255,255,255,255,255,255,255,255,255,255,255,255,255,255,255,255,255,255,255,255,255,255,255,255,255,255,255,255,255,255,255,255,255,255,255,255,255,255,255,255,255,255,255,255,255,255,255,255,255,255,255,255,255,255,255,255,255,255,255,255,255,255,255,255,255,255,255,255,255,255,255,255,255,255,255,255,255,255,255,255,255,255,255,255,255,255,255,255,255,255,255,255,255,255,255,255,255,255,255,255,255,255,255,255,255,255,255,255,255,255,255,255,255,255,255,255,255,255,255,255,255,255,255,255,255,255,255,255,255,255,255,255,255,255,255,255,255,170,169,255,255,255,255,255,255,255,255,255,255,255,255,255,255,255,255,255,255,255,255,255,255,255,255,255,255,255,255,255,255,255,255,255,255,255,255,255,255,255,255,255,255,255,255,255,255,255,255,255,255,255,255,255,255,255,255,255,...
  1150 00008DA9 FFFFFFFFFFFFFFFFFF-
  1150 00008DB2 FFFFFFFFFFFFFFFFFF-
  1150 00008DBB FFFFFFFFFFFFFFFFFF-
  1150 00008DC4 FFFFFFFFFFFFFFFFFF-
  1150 00008DCD FFFFFFFFFFFFFFFFFF-
  1150 00008DD6 FFFFFFFFFFFFFFFFFF-
  1150 00008DDF FFFFFFFFFFFFFFFFFF-
  1150 00008DE8 FFFFFFFFFFFFFFFFFF-
  1150 00008DF1 FFFFFFFFFFFFFFFFFF-
  1150 00008DFA FFFFFFFFFFFFFFFFFF-
  1150 00008E03 FFFFFFFFFFFFFFFFFF-
  1150 00008E0C FFFFFFFFFFFFFFFFFF-
  1150 00008E15 FFFFFFFFFFFFFFFFFF-
  1150 00008E1E FFFFFFFFFFFFFFFFFF-
  1150 00008E27 FFFFFFFFFFFFFFFFFF-
  1150 00008E30 FFFFFFFFFFFFFFFFFF-
  1150 00008E39 FFFFFFFFFFFFFFFFFF-
  1150 00008E42 FFFFFFFFFFFFFFFFFF-
  1150 00008E4B FFFFFFFFFFFFFFFFFF-
  1150 00008E54 FFFFFFFFFFFFFFFFFF-
  1150 00008E5D FFFFFFFFAAA9FFFFFF-
  1150 00008E66 FFFFFFFFFFFFFFFFFF-
  1150 00008E6F FFFFFFFFFFFFFFFFFF-
  1150 00008E78 FFFFFFFFFFFFFFFFFF-
  1150 00008E81 FFFFFFFFFFFFFFFFFF-
  1150 00008E8A FFFFFFFFFFFFFFFFFF-
  1150 00008E93 FFFFFFFFFFFFFFFFFF-
  1150 00008E9C FFFFFFFFFFFFFFFFFF-
  1150 00008EA5 FFFFFFFFFFFFFFFFFF-
  1150 00008EAE FFFFFFFFFFFFFFFFFF-
  1150 00008EB7 FFFFFFFFFFFFFFFFFF-
  1150 00008EC0 FFFFFFFFFFFFFFFFFF-
  1150 00008EC9 FFFFFFFFFFFFFFFFFF-
  1150 00008ED2 FFFFFFFFFFFFFFFFFF-
  1150 00008EDB FFFFFFFFFFFEFFFFFF-
  1150 00008EE4 FFFFFFFFFFFFFFFFFF-
  1150 00008EED FFFFFFFFFFFFFFFFFF-
  1150 00008EF6 FFFFFFFFFFFFFFFFFF-
  1150 00008EFF FFFFFFFFFFFFFFFFFF-
  1150 00008F08 FFFFFFFFFFFFFFFFFF-
  1150 00008F11 FFFFFFFFFFFFFFFFFF-
  1150 00008F1A FFFFFFFFFFFFFFFFFF-
  1150 00008F23 FFFFFFFFFFFFFFFFFF-
  1150 00008F2C FFFFFFFFFFFFFFFFFF-
  1150 00008F35 FFFFFFFFFFFFFFFFFF-
  1150 00008F3E FFFFFFFFFFFFFFFFFF-
  1150 00008F47 FFFFFFFFFFFFFFFFFF-
  1150 00008F50 FFFFFFFF481BFFFFFF-
  1150 00008F59 FFFFFFFFFFFFFFFFFF-
  1150 00008F62 FFFFFFFFFFFFFFFFFF-
  1150 00008F6B FFFFFFFFFFFFFFFFFF-
  1150 00008F74 FFFFFFFFFFFFFFFFFF-
  1150 00008F7D FFFFFFFFFFFFFFFFFF-
  1150 00008F86 FFFFFFFFFFFFFFFFFF-
  1150 00008F8F FFFFFFFFFFFFFFFFFF-
  1150 00008F98 FFFFFFFFFFFFFFFFFF-
  1150 00008FA1 1C92A848481BFFFFFF-
  1150 00008FAA FFFFFFFFFFFFFFFFFF-
  1150 00008FB3 FFFFFFFFFFFFFFFFFF-
  1150 00008FBC FFFFFFFFFFFFFFFFFF-
  1150 00008FC5 FFFFFFFFFFFFFFFFFF-
  1150 00008FCE FFFFFFFFFFFFFFFFFF-
  1150 00008FD7 FFFFFFFFFFFFFFFFFF-
  1150 00008FE0 FFFFFFFFFFFFFFFFFF-
  1150 00008FE9 FFFFFFFFFFFFFFFFFF-
  1150 00008FF2 FFFFFFFFFFFFFFFFFF-
  1150 00008FFB FFFFFFFFFFFFFFFFFF-
  1150 00009004 FFFFFFFFFFFFFFFFFF-
  1150 0000900D FFFFFFFFFFFFFFFFFF-
  1150 00009016 FFFFFFFFFFFFFFFFFF-
  1150 0000901F FFFFFEFFFFFFFFFFFF-
  1150 00009028 FFFFFFFFFFFFFFFFFF-
  1150 00009031 FFFFFFFFFFFFFFFFFF-
  1150 0000903A FFFFFFFFFFFFFFFFFF-
  1150 00009043 FFFFFFFFFFFFFFFFFF-
  1150 0000904C FFFFFFFFFFFFFFFFFF-
  1150 00009055 FFFFFFFFFFFFFFFFFF-
  1150 0000905E FFFFFFFFFFFFFFFFFF-
  1150 00009067 FFFFFFFFFFFFFFFFFF-
  1150 00009070 FFFFFFFFFFFFFFFFFF-
  1150 00009079 FFFFFFFFFFFFFFFFFF-
  1150 00009082 FFFFFFFFFFFFFFFFFF-
  1150 0000908B FFFFFFFFFFFFFFFFAC-
  1150 00009094 1C9191FFFFFFFFFFFF-
  1150 0000909D FFFFFFFFFFFFFFFFFF-
  1150 000090A6 FFFFFFFFFFFFFFFFFF-
  1150 000090AF FFFFFFFFFFFFFFFF1C-
  1150 000090B8 FFFFFFFFFFFFFFFFFF-
  1150 000090C1 FFFF1B48FFFFFFFFFF-
  1150 000090CA FFFFFFFFFFFFFFFFFF-
  1150 000090D3 FFFFFFFFFFFFFFFFFF-
  1150 000090DC FFFF1C48FFFF1BACA9-
  1150 000090E5 1B48AAFFFFFFFFFFFF-
  1150 000090EE FFFFFFFFFFFFFFFFFF-
  1150 000090F7 FFFFFFFFFFFFFFFFFF-
  1150 00009100 FFFFFFFFFFFFFFFFFF-
  1150 00009109 FFFFFFFFFFFFFFFFFF-
  1150 00009112 FFFFFFFFFFFFFFFFFF-
  1150 0000911B FFFFFFFFFFFFFFFFFF-
  1150 00009124 FFFFFFFFFFFFFFFFFF-
  1150 0000912D FFFFFFFFFFFFFFFFFF-
  1150 00009136 FFFFFFFFFFFFFFFFFF-
  1150 0000913F FFFFFFFFFFFFFFFFFF-
  1150 00009148 FFFFFFFFFFFFFFFFFF-
  1150 00009151 FFFFFFFFFFFFFFFFFF-
  1150 0000915A FFFFFFFFFFFFFFFFFE-
  1150 00009163 FFFFFFFFFFFFFFFFFF-
  1150 0000916C FFFFFFFFFFFFFFFFFF-
  1150 00009175 FFFFFFFFFFFFFFFFFF-
  1150 0000917E FFFFFFFFFFFFFFFFFF-
  1150 00009187 FFFFFFFFFFFFFFFFFF-
  1150 00009190 FFFFFFFFFFFFFFFFFF-
  1150 00009199 FFFFFFFFFFFFFFFFFF-
  1150 000091A2 FFFFFFFFFFFFFFFFFF-
  1150 000091AB FFFFFFFFFFFFFFFFFF-
  1150 000091B4 FFFFFFFFFFFFFFFFFF-
  1150 000091BD FFFFFFFFFFFFFFFFFF-
  1150 000091C6 FFFFFFFFFFFFFFFFFF-
  1150 000091CF FFFFFFFF48AC1C9292-
  1150 000091D8 1BFFFF1BFFFFFFFFFF-
  1150 000091E1 FFFFFFFFFFFFFFFFFF-
  1150 000091EA FFFFFFFFFFFFFFFFFF-
  1150 000091F3 FF1B1C929292AC48FF-
  1150 000091FC FF48A8A8AA48FFFFD5-
  1150 00009205 758F1BFFFFFFFFFFFF-
  1150 0000920E FFFFFFFFFFFFFFFFFF-
  1150 00009217 FFFFFFFFFFFFFFFFA9-
  1150 00009220 14ACAA1CAC16AC4848-
  1150 00009229 FFFFFFFFFFFFFFFFFF-
  1150 00009232 FFFFFFFFFFFFFFFFFF-
  1150 0000923B FFFFFFFFFFFFFFFFFF-
  1150 00009244 FFFFFFFFFFFFFFFFFF-
  1150 0000924D FFFFFFFFFFFFFFFFFF-
  1150 00009256 FFFFFFFFFFFFFFFFFF-
  1150 0000925F FFFFFFFFFFFFFFFFFF-
  1150 00009268 FFFFFFFFFFFFFFFFFF-
  1150 00009271 FFFFFFFFFFFFFFFFFF-
  1150 0000927A FFFFFFFFFFFFFFFFFF-
  1150 00009283 FFFFFFFFFFFFFFFFFF-
  1150 0000928C FFFFFFFFFFFFFFFFFF-
  1150 00009295 FFFFFFFFFFFFFFFFFF-
  1150 0000929E FFFFFFFFFFFEFFFFFF-
  1150 000092A7 FFFFFFFFFFFFFFFFFF-
  1150 000092B0 FFFFFFFFFFFFFFFFFF-
  1150 000092B9 FFFFFFFFFFFFFFFFFF-
  1150 000092C2 FFFFFFFFFFFFFFFFFF-
  1150 000092CB FFFFFFFFFFFFFFFFFF-
  1150 000092D4 FFFFFFFFFFFFFFFFFF-
  1150 000092DD FFFFFFFFFFFFFFFFFF-
  1150 000092E6 FFFFFFFFFFFFFFFFFF-
  1150 000092EF FFFFFFFFFFFFFFFFFF-
  1150 000092F8 FFFFFFFFFFFFFFFFFF-
  1150 00009301 FFFFFFFFFFFFFFFFFF-
  1150 0000930A FFFFFFFFFFFFFFFFFF-
  1150 00009313 FF48484894AA1B8FAC-
  1150 0000931C 1648FFFFFFFFFFFFFF-
  1150 00009325 FFFFFFFFFFFFFFFFFF-
  1150 0000932E FFFFFFFFFFFF8F8F8F-
  1150 00009337 D69292929293909191-
  1150 00009340 929115AA8F8F8F8F8F-
  1150 00009349 AC1CFFFFFFFFFFFFFF-
  1150 00009352 FFFFFFFFFFFFFFFFFF-
  1150 0000935B FFFFFFFF1C929292A9-
  1150 00009364 1C4814A9ACACACFFFF-
  1150 0000936D FFFFFFFFFFFFFFFFFF-
  1150 00009376 FFFFFFFFFFFFFFFFFF-
  1150 0000937F FFFFFFFFFFFFFFFFFF-
  1150 00009388 FFFFFFFFFFFFFFFFFF-
  1150 00009391 FFFFFFFFFFFFFFFFFF-
  1150 0000939A FFFFFFFFFFFFFFFFFF-
  1150 000093A3 FFFFFFFFFFFFFFFFFF-
  1150 000093AC FFFFFFFFFFFFFFFFFF-
  1150 000093B5 FFFFFFFFFFFFFFFFFF-
  1150 000093BE FFFFFFFFFFFFFFFFFF-
  1150 000093C7 FFFFFFFFFFFFFFFF43-
  1150 000093D0 45FF451CFFFFFFFFFF-
  1150 000093D9 FFFFFFFFFFFFFFFFFF-
  1150 000093E2 FFFFFEFFFFFFFFFFFF-
  1150 000093EB FFFFFFFFFFFFFFFF43-
  1150 000093F4 45FF451CFFFFFFFFFF-
  1150 000093FD FFFFFFFFFFFFFFFFFF-
  1150 00009406 FFFFFFFFFFFFFFFFFF-
  1150 0000940F FFFFFFFFFFFFFFFFFF-
  1150 00009418 FFFFFFFFFFFFFFFFFF-
  1150 00009421 FFFFFFFFFFFFFFFFFF-
  1150 0000942A FFFFFFFFFFFFFFFFFF-
  1150 00009433 FFFFFFFFFFFFFFFFFF-
  1150 0000943C FFFFFFFFFFFFFFFFFF-
  1150 00009445 FFFFFFFFFFFFFFFFFF-
  1150 0000944E FFFFFFFFFFFF1B48AA-
  1150 00009457 AA95481C9292DA481C-
  1150 00009460 FFFFFFFFFFFFFFFFFF-
  1150 00009469 FFFFFFFFFFFFFFFFFF-
  1150 00009472 FF488F908F8F159291-
  1150 0000947B 1691908FD691D8D890-
  1150 00009484 7575758F8F758F8EFF-
  1150 0000948D FFFFFFFFFFFFFFFFFF-
  1150 00009496 FFFFFFFFFFFFFF1B90-
  1150 0000949F 909090929215AA48AA-
  1150 000094A8 A88DA993FFFFFFFFFF-
  1150 000094B1 FFFFFFFFFFFFFFFFFF-
  1150 000094BA FFFFFFFFFFFFFFFFFF-
  1150 000094C3 FFFFFFFFFFFFFFFFFF-
  1150 000094CC FFFFFFFFFFFFFFFFFF-
  1150 000094D5 FFFFFFFFFFFFFFFFFF-
  1150 000094DE FFFFFFFFFFFFFFFFFF-
  1150 000094E7 FFFFFFFFFFFFFFFFFF-
  1150 000094F0 FFFFFFFFFFFFFFFFFF-
  1150 000094F9 FFFFFFFFFFFFFFFFFF-
  1150 00009502 FFFFFFFFFFFFFFFFFF-
  1150 0000950B FFFFFFFFFF450E7547-
  1150 00009514 754545FFFFFFFFFFFF-
  1150 0000951D FFFFFFFFFFFFFFFFFE-
  1150 00009526 FFFFFFFFFFFFFFFFFF-
  1150 0000952F FFFFFF450E7575750E-
  1150 00009538 FFFFFFFFFFFFFFFFFF-
  1150 00009541 FFFFFFFFFFFFFFFFFF-
  1150 0000954A FFFFFFFFFFFFFFFFFF-
  1150 00009553 FFFFFFFFFFFFFFFFFF-
  1150 0000955C FFFFFFFFFFFFFFFFFF-
  1150 00009565 FFFFFFFFFFFFFFFFFF-
  1150 0000956E FFFFFFFFFFFFFFFFFF-
  1150 00009577 FFFFFFFFFFFFFFFFFF-
  1150 00009580 FFFFFFFFFFFFFFFFFF-
  1150 00009589 FFFFFFFFFFFFFFFFFF-
  1150 00009592 FFFFFFACAA8FA8A948-
  1150 0000959B AA159291919190ACFF-
  1150 000095A4 FFFFFFFFFFFFFFFFFF-
  1150 000095AD FFFFFFFFFFFF8F8F90-
  1150 000095B6 90909115D68F907575-
  1150 000095BF 90D6D6929275757575-
  1150 000095C8 8F8F758F8FACFFFFFF-
  1150 000095D1 FFFFFFFFFFFFFFFFFF-
  1150 000095DA FFFFFFFF9291919191-
  1150 000095E3 9215168F8FAA48A948-
  1150 000095EC AA48FFFFFFFFFFFFFF-
  1150 000095F5 FFFFFFFFFFFFFFFFFF-
  1150 000095FE FFFFFFFFFFFFFFFFFF-
  1150 00009607 FFFFFFFFFFFFFFFFFF-
  1150 00009610 FFFFFFFFFFFFFFFFFF-
  1150 00009619 FFFFFFFFFFFFFFFFFF-
  1150 00009622 FFFFFFFFFFFFFFFFFF-
  1150 0000962B FFFFFFFFFFFFFFFFFF-
  1150 00009634 FFFFFFFFFFFFFFFFFF-
  1150 0000963D FFFFFFFFFFFFFFFFFF-
  1150 00009646 FFFFFFFFFFFFFFFFFF-
  1150 0000964F 4345457575750E0E0E-
  1150 00009658 0E0E0E0E4545FFFFFF-
  1150 00009661 FFFFFFFFFFFEFFFFFF-
  1150 0000966A FFFFFF4343450E0E0E-
  1150 00009673 0E0E0E75750E4345FF-
  1150 0000967C FFFFFFFFFFFFFFFFFF-
  1150 00009685 FFFFFFFFFFFFFFFFFF-
  1150 0000968E FFFFFFFFFFFFFFFFFF-
  1150 00009697 FFFFFFFFFFFFFFFFFF-
  1150 000096A0 FFFFFFFFFFFFFFFFFF-
  1150 000096A9 FFFFFFFFFFFFFFFFFF-
  1150 000096B2 FFFFFFFFFFFFFFFFFF-
  1150 000096BB FFFFFFFFFFFFFFFFFF-
  1150 000096C4 FFFFFFFFFFFFFFFFFF-
  1150 000096CD FFFFFFFFFFFFFFFFFF-
  1150 000096D6 8F48AAACAA8F8F9294-
  1150 000096DF 9090919292FFFFFFFF-
  1150 000096E8 FFFFFFFFFFFFFFFFFF-
  1150 000096F1 FFFF1B758F758F8FD5-
  1150 000096FA 1414D77576759090D6-
  1150 00009703 908F75D57575DA7575-
  1150 0000970C D77690FFFFFFFFFFFF-
  1150 00009715 FFFFFFFFFFFFFFFFFF-
  1150 0000971E FF9192AA939294A98F-
  1150 00009727 8F929048AA1B48AAFF-
  1150 00009730 FFFFFFFFFFFFFFFFFF-
  1150 00009739 FFFFFFFFFFFFFFFFFF-
  1150 00009742 FFFFFFFFFFFFFFFFFF-
  1150 0000974B FFFFFFFFFFFFFFFFFF-
  1150 00009754 FFFFFFFFFFFFFFFFFF-
  1150 0000975D FFFFFFFFFFFFFFFFFF-
  1150 00009766 FFFFFFFFFFFFFFFFFF-
  1150 0000976F FFFFFFFFFFFFFFFFFF-
  1150 00009778 FFFFFFFFFFFFFFFFFF-
  1150 00009781 FFFFFFFFFFFFFFFFFF-
  1150 0000978A FFFFFFFFFFFF457575-
  1150 00009793 7575750E750E0E0E0E-
  1150 0000979C 750E754545FFFFFFFF-
  1150 000097A5 FFFFFEFFFFFFFFFF75-
  1150 000097AE 750E752D0E0E0E7575-
  1150 000097B7 7575757575FFFFFFFF-
  1150 000097C0 FFFFFFFFFFFFFFFFFF-
  1150 000097C9 FFFFFFFFFFFFFFFFFF-
  1150 000097D2 FFFFFFFFFFFFFFFFFF-
  1150 000097DB FFFFFFFFFFFFFFFFFF-
  1150 000097E4 FFFFFFFFFFFFFFFFFF-
  1150 000097ED FFFFFFFFFFFFFFFFFF-
  1150 000097F6 FFFFFFFFFFFFFFFFFF-
  1150 000097FF FFFFFFFFFFFFFFFFFF-
  1150 00009808 FFFFFFFFFFFFFFFFFF-
  1150 00009811 FFFFFFFFFF1BAA1C48-
  1150 0000981A ACA9A9AC8FAAA892AA-
  1150 00009823 AC9248FFFFFFFFFFFF-
  1150 0000982C FFFFFFFFFFFFFFFF8F-
  1150 00009835 D88F7590151514DA8F-
  1150 0000983E 8F90D8D68F75758F8F-
  1150 00009847 8F8FD8DED8A8DCC2D8-
  1150 00009850 48FFFFFF1C1B4AFFFF-
  1150 00009859 FFFFFFFFFFFF489494-
  1150 00009862 AA9494AC8E748FAC92-
  1150 0000986B A948488F48488F1BFF-
  1150 00009874 FFFFFFFFFFFFFFFFFF-
  1150 0000987D FFFFFFFFFFFFFFFFFF-
  1150 00009886 FFFFFFFFFFFFFFFFFF-
  1150 0000988F FFFFFFFFFFFFFFFFFF-
  1150 00009898 FFFFFFFFFFFFFFFFFF-
  1150 000098A1 FFFFFFFFFFFFFFFFFF-
  1150 000098AA FFFFFFFFFFFFFFFFFF-
  1150 000098B3 FFFFFFFFFFFFFFFFFF-
  1150 000098BC FFFFFFFFFFFFFFFFFF-
  1150 000098C5 FFFFFFFFFFFFFFFFFF-
  1150 000098CE 43FFFF75750E758F75-
  1150 000098D7 757547750E750E4775-
  1150 000098E0 0E0E0E0E0E0E4545FE-
  1150 000098E9 0E45450E0E0E75750E-
  1150 000098F2 757575477575757475-
  1150 000098FB 0E751CFF1CFFFFFFFF-
  1150 00009904 FFFFFFFFFFFFFFFFFF-
  1150 0000990D FFFFFFFFFFFFFFFFFF-
  1150 00009916 FFFFFFFFFFFFFFFFFF-
  1150 0000991F FFFFFFFFFFFFFFFFFF-
  1150 00009928 FFFFFFFFFFFFFFFFFF-
  1150 00009931 FFFFFFFFFFFFFFFFFF-
  1150 0000993A FFFFFFFFFFFFFFFFFF-
  1150 00009943 FFFFFFFFFFFFFFFFFF-
  1150 0000994C FFFFFFFFFFFFFFFF43-
  1150 00009955 8F8F1BAA8F1CAA15AA-
  1150 0000995E 8E748F9394A9959448-
  1150 00009967 FFFFFFFFFFFFFF1C46-
  1150 00009970 7546FFFF1CDADAD68F-
  1150 00009979 8F8DD5758F8FD69090-
  1150 00009982 8FD68F757575D58FDC-
  1150 0000998B DC91DADADA158E1B8E-
  1150 00009994 747575767648FFFFFF-
  1150 0000999D FFFFFFFF1B929092AA-
  1150 000099A6 8F737574A8A9AC1B8F-
  1150 000099AF 8F488F75758F1BFFFF-
  1150 000099B8 FFFFFFFFFFFFFFFFFF-
  1150 000099C1 FFFFFFFFFFFFFFFFFF-
  1150 000099CA FFFFFFFFFFFFFFFFFF-
  1150 000099D3 FFFFFFFFFFFFFFFFFF-
  1150 000099DC FFFFFFFFFFFFFF4545-
  1150 000099E5 45FFFFFFFFFFFFFFFF-
  1150 000099EE FFFFFFFFFFFFFFFFFF-
  1150 000099F7 FFFFFFFFFFFFFFFF45-
  1150 00009A00 48FFFFFFFFFFFFFFFF-
  1150 00009A09 FFFFFFFFFFFF434646-
  1150 00009A12 7475757373730E7575-
  1150 00009A1B 0E7575757575750E0E-
  1150 00009A24 0E0E750E0EFE0E0E0E-
  1150 00009A2D 0E750E477575757547-
  1150 00009A36 75750E0E7575757445-
  1150 00009A3F 73FFFFFFFFFFFFFFFF-
  1150 00009A48 FFFFFFFFFFFF1C74FF-
  1150 00009A51 FFFFFFFFFFFFFFFFFF-
  1150 00009A5A FFFFFFFFFFFFFFFFFF-
  1150 00009A63 FFFFFF1B467545FFFF-
  1150 00009A6C FFFFFFFFFFFFFFFFFF-
  1150 00009A75 FFFFFFFFFFFFFFFFFF-
  1150 00009A7E FFFFFFFFFFFFFFFFFF-
  1150 00009A87 FFFFFFFFFFFFFFFFFF-
  1150 00009A90 FFFFFFFF8F75757548-
  1150 00009A99 A991ACACAC8F8F7375-
  1150 00009AA2 AC949192ACFFFFFFFF-
  1150 00009AAB FFFFFF907675758F8F-
  1150 00009AB4 748FA8DEDCDAD6D690-
  1150 00009ABD 757575908F90D47575-
  1150 00009AC6 7575758FD51312DADA-
  1150 00009ACF DADE15D88F8F8F7575-
  1150 00009AD8 75767AFFFFFFFFFFFF-
  1150 00009AE1 FF1C909091AA8F7375-
  1150 00009AEA 8F8FAC488F8FAC928F-
  1150 00009AF3 758F8F8FFFFFFFFFFF-
  1150 00009AFC FFFFFFFFFFFFFFFFFF-
  1150 00009B05 FFFFFFFFFFFFFFFFFF-
  1150 00009B0E FFFFFFFFFFFFFFFFFF-
  1150 00009B17 FFFFFFFFFFFFFFFFFF-
  1150 00009B20 FFFF4546467575758F-
  1150 00009B29 8F1CFFFFFFFFFFFFFF-
  1150 00009B32 FFFFFFFFFFFFFFFFFF-
  1150 00009B3B FFFFFFFFFF430EFFFF-
  1150 00009B44 FF0E44FFFFFFFFFF0E-
  1150 00009B4D FFFFFFFF460E737575-
  1150 00009B56 0E2D0E0E7575757575-
  1150 00009B5F 754747750E75757575-
  1150 00009B68 750EFE750E75027575-
  1150 00009B71 75470E757575730E2D-
  1150 00009B7A 0E0E7375740E0EFFFF-
  1150 00009B83 FF0E444343FFFFFFFF-
  1150 00009B8C FFFFFF45FFFFFFFFFF-
  1150 00009B95 FFFFFFFFFFFFFFFFFF-
  1150 00009B9E FFFFFFFFFFFFFF8F75-
  1150 00009BA7 7575751B8F0EFFFFFF-
  1150 00009BB0 FFFFFFFFFFFFFFFFFF-
  1150 00009BB9 FFFFFFFFFFFFFFFFFF-
  1150 00009BC2 FFFFFFFFFFFFFFFFFF-
  1150 00009BCB FFFFFFFFFFFFFFFFFF-
  1150 00009BD4 48758F7575D7AAAA90-
  1150 00009BDD ACAC8F8F748F921691-
  1150 00009BE6 D88FFF48AC1CFFFF1C-
  1150 00009BEF 767575758F8F8FD516-
  1150 00009BF8 DCD78F14DE1490908F-
  1150 00009C01 90D6D68F757575758F-
  1150 00009C0A 758F8FD6C6B1C890D6-
  1150 00009C13 DC8F8F8F8F75757676-
  1150 00009C1C 1BFFFFFFAC8F4848D8-
  1150 00009C25 D8DA158F748F758F8F-
  1150 00009C2E 8FAA8FAC1691757575-
  1150 00009C37 75751BFFFFFFFFFFFF-
  1150 00009C40 FFFFFFFFFFFFFFFFFF-
  1150 00009C49 FFFFFFFFFFFFFFFFFF-
  1150 00009C52 FFFFFFFFFFFFFFFFFF-
  1150 00009C5B FFFFFFFFFFFFFF4374-
  1150 00009C64 75467575468F748FFF-
  1150 00009C6D FFFFFFFFFFFFFFFFFF-
  1150 00009C76 FFFFFFFFFFFFFFFFFF-
  1150 00009C7F FF1CFF0E0E450E0EFF-
  1150 00009C88 0EFFFFFF450E0E0E0E-
  1150 00009C91 0E0E457475750E730E-
  1150 00009C9A 0E7575757575754747-
  1150 00009CA3 027575757575750EFE-
  1150 00009CAC 757575757575750E75-
  1150 00009CB5 75757575750E0E0E0E-
  1150 00009CBE 738F0E450E0E0E0E43-
  1150 00009CC7 45FFFFFF0E44457345-
  1150 00009CD0 45458FFFFFFFFFFFFF-
  1150 00009CD9 FFFFFFFFFFFFFFFFFF-
  1150 00009CE2 FFFFFFACAC8F468F75-
  1150 00009CEB 758F8FFFFFFFFFFFFF-
  1150 00009CF4 FFFFFFFF0EFFFFFFFF-
  1150 00009CFD FFFFFFFFFFFFFFFFFF-
  1150 00009D06 FFFFFFFFFFFFFFFFFF-
  1150 00009D0F FFFF46FFFF7475758F-
  1150 00009D18 7590151692AC8F8F8F-
  1150 00009D21 8F8F8F75D7DEDE9092-
  1150 00009D2A 9275FFFFFF48BF7675-
  1150 00009D33 758F90D8D790907575-
  1150 00009D3C 758FD58F8F8FD514D6-
  1150 00009D45 8F8F908F75758F7575-
  1150 00009D4E 7590D6D78F8FD41390-
  1150 00009D57 D78F8F8F76C248FFFF-
  1150 00009D60 FF8F8F8FD5D8DEDE76-
  1150 00009D69 75748F8F8F8F8F8F92-
  1150 00009D72 D89615908F75757545-
  1150 00009D7B 45450E73FFFFFFFFFF-
  1150 00009D84 FFFFFFFFFFFFFFFFFF-
  1150 00009D8D 1B45FFFFFFFFFFFFFF-
  1150 00009D96 FF450E0E0E0EFFFFFF-
  1150 00009D9F FFFFFFFF4575754775-
  1150 00009DA8 8F8F8F8F48FFFFFFFF-
  1150 00009DB1 FFFFFFFFFFFFFFFFFF-
  1150 00009DBA FFFFFFFFFFFFFF7545-
  1150 00009DC3 7573757574740E44FF-
  1150 00009DCC FF0E7475730E0E730E-
  1150 00009DD5 7575730E0E730E7575-
  1150 00009DDE 757575757575757575-
  1150 00009DE7 7575757575FE757575-
  1150 00009DF0 757575757575757575-
  1150 00009DF9 75750E73730E0E7547-
  1150 00009E02 7545FF0E754646FFFF-
  1150 00009E0B 0E758F45737474450E-
  1150 00009E14 0EFFFFFFFFFFFFFFFF-
  1150 00009E1D FFFFFFFFFFFFFFFFFF-
  1150 00009E26 457575758F75757575-
  1150 00009E2F 46FFFFFFFFFFFFFF2C-
  1150 00009E38 0E0E46FF4546FFFFFF-
  1150 00009E41 FF4645FFFF1B1BFFFF-
  1150 00009E4A FFFFFFFFFFFFFF7475-
  1150 00009E53 0E0E0E7575757675DE-
  1150 00009E5C DED78F8F8F8F8F7575-
  1150 00009E65 75D7C6C8BE767546FF-
  1150 00009E6E FFFFACC29075758FD5-
  1150 00009E77 DEC276758F75758F8F-
  1150 00009E80 75758FD6C613148F8F-
  1150 00009E89 8F8F7575D7D5D57575-
  1150 00009E92 8F7590D6DFBE758F8F-
  1150 00009E9B 8F90DB8FFFFF45458F-
  1150 00009EA4 757590DFDF75758F8F-
  1150 00009EAD 8F8F8F8F8F14DADC91-
  1150 00009EB6 75758F8F730E0E0E0E-
  1150 00009EBF 7545FFFFFFFFFFFFFF-
  1150 00009EC8 FFFF48458FFF464545-
  1150 00009ED1 FFFFFF0E4746454675-
  1150 00009EDA 0E0E0EFF4543FFFFFF-
  1150 00009EE3 FF4575757575757575-
  1150 00009EEC 75474646FFFFFFFFFF-
  1150 00009EF5 FFFFFFFFFFFFFFFFFF-
  1150 00009EFE FFFFFF460E74757575-
  1150 00009F07 0E0E750E0EFFFF0E75-
  1150 00009F10 740E0E75757575750E-
  1150 00009F19 0E737373730E757575-
  1150 00009F22 7375757675752D7575-
  1150 00009F2B 7575FE757575750E75-
  1150 00009F34 7375757575730E7573-
  1150 00009F3D 0E0E2D0E75757575FF-
  1150 00009F46 440E0E0EFF440E0E45-
  1150 00009F4F 0E0E45748F75FFFFFF-
  1150 00009F58 FFFFFFFFFFFFFFFFFF-
  1150 00009F61 FFFFFFFF4575754775-
  1150 00009F6A 7575757575754643FF-
  1150 00009F73 FFFF0E0E750E0E7546-
  1150 00009F7C 75470247FFFF0E4545-
  1150 00009F85 458F75451CFFFFFFFF-
  1150 00009F8E 1CFFFF43750E750E0E-
  1150 00009F97 0E8F75767590DADA8F-
  1150 00009FA0 8F8F8F8F75757590C7-
  1150 00009FA9 757576754548FF1B90-
  1150 00009FB2 DC13D68F8F8FDFDFBF-
  1150 00009FBB 8F8F8F75758F757574-
  1150 00009FC4 13DE8FD4D5757575D7-
  1150 00009FCD 8FD4D77575758F8FD5-
  1150 00009FD6 13C6D88F8FD6DEDADA-
  1150 00009FDF D77545744575757575-
  1150 00009FE8 DA90757575758F8F8F-
  1150 00009FF1 75D51515909076758F-
  1150 00009FFA 740E0E4575757575FF-
  1150 0000A003 FF1B1BFFFFFFFF4643-
  1150 0000A00C 74754675460E0E0E45-
  1150 0000A015 750202754675757574-
  1150 0000A01E 750E0EFFFFFF8F7575-
  1150 0000A027 754675757575757575-
  1150 0000A030 751CFFFFFFFFFFFFFF-
  1150 0000A039 FFFFFFFFFFFFFFFFFF-
  1150 0000A042 FF75758F75750E0E0E-
  1150 0000A04B 0E0E0EFF0E0E0E0E44-
  1150 0000A054 747575750E0E0E0E0E-
  1150 0000A05D 0E7573757375758FBD-
  1150 0000A066 7575750E2D2D7575FE-
  1150 0000A06F 757575752D0E0E7375-
  1150 0000A078 0E757373730E0E730E-
  1150 0000A081 0E75757575FF430E0E-
  1150 0000A08A 0E0E0E0E0E0E730E0E-
  1150 0000A093 758F75FFFFFFFFFFFF-
  1150 0000A09C FFFFFFFFFFFFFFFFFF-
  1150 0000A0A5 FF8F75757575757575-
  1150 0000A0AE 757575750EFF430E0E-
  1150 0000A0B7 737691907575020276-
  1150 0000A0C0 47750E0E437546458F-
  1150 0000A0C9 461BFFFFFFFF481CFF-
  1150 0000A0D2 757575747475757575-
  1150 0000A0DB 90D7759116D58F8F8F-
  1150 0000A0E4 8F8F8F8F7574754775-
  1150 0000A0ED 754775757576D9DE14-
  1150 0000A0F6 D58F758F7475738F75-
  1150 0000A0FF 8F7575757575D7D775-
  1150 0000A108 8F8F757575D7D78F75-
  1150 0000A111 75757575750E0E7373-
  1150 0000A11A 757575D5DEBF767675-
  1150 0000A123 754747472D47737575-
  1150 0000A12C 8F8F8F8F8F8F8F8F14-
  1150 0000A135 DCD790BE908F757374-
  1150 0000A13E 757575757649FF481B-
  1150 0000A147 FFFFFFFF1B758F4746-
  1150 0000A150 757545737547477602-
  1150 0000A159 47757576BE75750E0E-
  1150 0000A162 45450E0E8F76757575-
  1150 0000A16B 7575757575757547FF-
  1150 0000A174 FFFFFFFFFFFFFFFFFF-
  1150 0000A17D FFFFFFFFFFFF0E758F-
  1150 0000A186 8F750E75470E75750E-
  1150 0000A18F 0E0E0E0E750E48748F-
  1150 0000A198 8F0E0E73730E0E7573-
  1150 0000A1A1 737575757575757575-
  1150 0000A1AA 73750E7575FE757575-
  1150 0000A1B3 750E75737575757373-
  1150 0000A1BC 73730E0E737373748F-
  1150 0000A1C5 8F8F46450E0E0E0E0E-
  1150 0000A1CE 4545757575758F8F75-
  1150 0000A1D7 0E0EFFFFFFFFFFFFFF-
  1150 0000A1E0 FFFFFFFF43FF467575-
  1150 0000A1E9 757575757575757575-
  1150 0000A1F2 750E470E7373757576-
  1150 0000A1FB 757575757576747575-
  1150 0000A204 8E4375751B8F751C46-
  1150 0000A20D FFFF1B8FAC7576DA75-
  1150 0000A216 757575757575D7BE90-
  1150 0000A21F D7908F8F8F8F8F7575-
  1150 0000A228 D78F0E730E0E750247-
  1150 0000A231 757502BED77575730E-
  1150 0000A23A 0E0E0E0E7576757575-
  1150 0000A243 8F8F758FDED6D6D690-
  1150 0000A24C D5D58F757576757575-
  1150 0000A255 75750E0E0E0E0E7575-
  1150 0000A25E 75BED84775750E4776-
  1150 0000A267 750E0E7375D7D58F75-
  1150 0000A270 D58F8F75908FD8D890-
  1150 0000A279 DA907575748F757575-
  1150 0000A282 D775758F8F8F1CFF45-
  1150 0000A28B 1B1C75751B7575758F-
  1150 0000A294 757575757675757575-
  1150 0000A29D 757575757575737575-
  1150 0000A2A6 0E7575757575757575-
  1150 0000A2AF 764775757646FF45FF-
  1150 0000A2B8 FFFFFFFFFFFFFFFF45-
  1150 0000A2C1 45FF0E0E7575757575-
  1150 0000A2CA 757575750E0E0E0E75-
  1150 0000A2D3 75738F8F8F8F74750E-
  1150 0000A2DC 0E730E757573737575-
  1150 0000A2E5 757575BD7575757573-
  1150 0000A2EE BD75FE757575757575-
  1150 0000A2F7 75758F750E0E737575-
  1150 0000A300 730E0E0E0E74757575-
  1150 0000A309 7374750E0E0E747575-
  1150 0000A312 75758F8F7575730E0E-
  1150 0000A31B 761CFFFFFFFFFFFFFF-
  1150 0000A324 1B7546757575757575-
  1150 0000A32D 75757575757575758F-
  1150 0000A336 75757576757575758F-
  1150 0000A33F 8F7575468F8F757575-
  1150 0000A348 751B907575750E7474-
  1150 0000A351 758F7575D775757575-
  1150 0000A35A 757575D7DADAD78F16-
  1150 0000A363 8F75908F7575D87575-
  1150 0000A36C 750E75757547750E47-
  1150 0000A375 BE7575750E73757575-
  1150 0000A37E 737576767675D78FD4-
  1150 0000A387 D2DAD8D713D6D7D68F-
  1150 0000A390 757676767676757575-
  1150 0000A399 7575730E73757575D5-
  1150 0000A3A2 0E0E75477575750E0E-
  1150 0000A3AB 757575D78F75758F8F-
  1150 0000A3B4 75DA8F75D8DA948F75-
  1150 0000A3BD 757575757575D57575-
  1150 0000A3C6 8F747345730E8F7575-
  1150 0000A3CF 911B75754575757575-
  1150 0000A3D8 4747758F8F75757575-
  1150 0000A3E1 757575757575757575-
  1150 0000A3EA 75757575758F757675-
  1150 0000A3F3 757575467574FFFFFF-
  1150 0000A3FC FFFFFFFFFF8F750E0E-
  1150 0000A405 737575758F75758F75-
  1150 0000A40E 7575730E7575757375-
  1150 0000A417 757575730E750E0E73-
  1150 0000A420 737573750E738F8F75-
  1150 0000A429 7575757575757575FE-
  1150 0000A432 75750E75757575BDBD-
  1150 0000A43B 750E0E75757575730E-
  1150 0000A444 0E0E7575730E757575-
  1150 0000A44D 0E0E757575757575BE-
  1150 0000A456 75757575738E9075FF-
  1150 0000A45F FFFFFFFFFFFF467575-
  1150 0000A468 757575D7BD75757575-
  1150 0000A471 75757575757575758F-
  1150 0000A47A 7575757575758F0E47-
  1150 0000A483 748E8F757575470E76-
  1150 0000A48C 757575730E757375BD-
  1150 0000A495 757575757575757575-
  1150 0000A49E BED8C29075148F8F8F-
  1150 0000A4A7 75758F8F757547750E-
  1150 0000A4B0 757575472D75767575-
  1150 0000A4B9 7573758F75757375BE-
  1150 0000A4C2 767675BE758FBC13DA-
  1150 0000A4CB D6C813D6D5D5907675-
  1150 0000A4D4 7676BE757573758F75-
  1150 0000A4DD 737575757575754747-
  1150 0000A4E6 757575470E75750E75-
  1150 0000A4EF 758F8F8F8F8F8F8DD4-
  1150 0000A4F8 75DADA907575757575-
  1150 0000A501 7575758F7575750E0E-
  1150 0000A50A 0E0E7575757575750E-
  1150 0000A513 75757575758F750E75-
  1150 0000A51C 7575757575757575BD-
  1150 0000A525 757575757575757575-
  1150 0000A52E 75757575D875757575-
  1150 0000A537 757546FFFFFFFFFFFF-
  1150 0000A540 FF46758F4375757575-
  1150 0000A549 75BD750E8F75757575-
  1150 0000A552 0E0E7575750E737575-
  1150 0000A55B 0E0E0E2D730E737575-
  1150 0000A564 0E73738FBE75757375-
  1150 0000A56D 7675757575FE737373-
  1150 0000A576 7375757575BD747473-
  1150 0000A57F 0E75750E0E0E0E750E-
  1150 0000A588 0E0E0E757575730E75-
  1150 0000A591 BD7575754775757575-
  1150 0000A59A 0E750EAA75FFFFFFFF-
  1150 0000A5A3 FFFF450E7575757575-
  1150 0000A5AC D7D775757575757575-
  1150 0000A5B5 75477575BED48F7575-
  1150 0000A5BE 75750E75758F750E75-
  1150 0000A5C7 0E7575750E76757575-
  1150 0000A5D0 750E0E73738F757575-
  1150 0000A5D9 73737575757575BE75-
  1150 0000A5E2 7676758F13D7D79073-
  1150 0000A5EB 0E0E0E767547477575-
  1150 0000A5F4 757575757573757575-
  1150 0000A5FD 757575737590767676-
  1150 0000A606 76750E738FD8121213-
  1150 0000A60F 13D6D6BE7675767676-
  1150 0000A618 7575750E757575758F-
  1150 0000A621 757575747576768F75-
  1150 0000A62A 477575750E0E0E748F-
  1150 0000A633 D8D6D68F738F909091-
  1150 0000A63C BE7575757575737375-
  1150 0000A645 4775758F73750E0E75-
  1150 0000A64E 75757575477575750E-
  1150 0000A657 0E750E757575750E0E-
  1150 0000A660 75757575BEBED77575-
  1150 0000A669 027575757575757575-
  1150 0000A672 D7D8D7757575757547-
  1150 0000A67B 45FFFFFFFFFFFF8E91-
  1150 0000A684 480E750E738F757575-
  1150 0000A68D 0E7575BE75750E7375-
  1150 0000A696 75760E0E0E0E730E0E-
  1150 0000A69F 2D470E757575758E74-
  1150 0000A6A8 D7BE750E0E0E757575-
  1150 0000A6B1 7373FE0E7373757575-
  1150 0000A6BA 75738F758F75738F74-
  1150 0000A6C3 7575730E0E0E0E7575-
  1150 0000A6CC 757575750E7575BD75-
  1150 0000A6D5 7575757575750E730E-
  1150 0000A6DE 748F8FFFFF8FFFFF75-
  1150 0000A6E7 75BDD7757575757575-
  1150 0000A6F0 757575757575757675-
  1150 0000A6F9 75BE8F757575757575-
  1150 0000A702 7475750E757575758F-
  1150 0000A70B 750E75D57576757575-
  1150 0000A714 75750E75470E0E0E75-
  1150 0000A71D 75757575D790D77575-
  1150 0000A726 75759013730E0E0E75-
  1150 0000A72F 767575737576757375-
  1150 0000A738 758F8F75757575750E-
  1150 0000A741 757575BF7776757575-
  1150 0000A74A 7573D7C6DAD213D8C2-
  1150 0000A753 BED77576BF75757547-
  1150 0000A75C 757575757575757575-
  1150 0000A765 757375767575757575-
  1150 0000A76E 75750E0E0E8FDA8F8F-
  1150 0000A777 75758F907592907575-
  1150 0000A780 7576750E0E0E0E7547-
  1150 0000A789 7575757575757575D7-
  1150 0000A792 730E758F8F75758F0E-
  1150 0000A79B 477676757575757575-
  1150 0000A7A4 738F75BD7502767575-
  1150 0000A7AD 757675757575757575-
  1150 0000A7B6 75757575BE7575FFFF-
  1150 0000A7BF 75FFFF438F92460E0E-
  1150 0000A7C8 0E75757575758F7573-
  1150 0000A7D1 BD75750E73758F7575-
  1150 0000A7DA 75752C0E0E73737575-
  1150 0000A7E3 758F73758F748F7573-
  1150 0000A7EC 0E0E0E7575757373FE-
  1150 0000A7F5 750E73737575737373-
  1150 0000A7FE 75750E0E7575757475-
  1150 0000A807 750E0E738F8F8F7575-
  1150 0000A810 0E0E0E76BEBEBED774-
  1150 0000A819 737575750E0E757575-
  1150 0000A822 1C450E750E7575BDBD-
  1150 0000A82B 7575757575757575D5-
  1150 0000A834 75757575BD75757575-
  1150 0000A83D 757575758F8F750E75-
  1150 0000A846 7575758F75750E2D75-
  1150 0000A84F D575757575470E0E75-
  1150 0000A858 75750E0E0E0E757575-
  1150 0000A861 7576D8DA908F75758F-
  1150 0000A86A BB0E75757575757575-
  1150 0000A873 750E750E7575757575-
  1150 0000A87C 757575757547757575-
  1150 0000A885 75BED8BE75757575D7-
  1150 0000A88E BE758FD7758FD7D8BE-
  1150 0000A897 BE7675757547757575-
  1150 0000A8A0 75748F757575757573-
  1150 0000A8A9 754775757576754775-
  1150 0000A8B2 75730ED48F7575758F-
  1150 0000A8BB BE91D775757547750E-
  1150 0000A8C4 472D0E0E7647470E0E-
  1150 0000A8CD 0E75758F75D5750E75-
  1150 0000A8D6 7575758F73730E7575-
  1150 0000A8DF 75D7D5D7BD76767575-
  1150 0000A8E8 750275767575758FD5-
  1150 0000A8F1 757575754775757575-
  1150 0000A8FA BDBE75750E0E0E0EFF-
  1150 0000A903 747590730E73737575-
  1150 0000A90C 0E8FD7D7BEBDBD750E-
  1150 0000A915 0E0E7575908E8F750E-
  1150 0000A91E 2D737375758F750E0E-
  1150 0000A927 0E738F75750E757573-
  1150 0000A930 757573730EFE730E75-
  1150 0000A939 73737575730E757375-
  1150 0000A942 757375757575757575-
  1150 0000A94B 75758F4875750E0E0E-
  1150 0000A954 737676767575737575-
  1150 0000A95D 750E0E757575750E47-
  1150 0000A966 02027575D5D77575D7-
  1150 0000A96F D7D7D78F7575757575-
  1150 0000A978 75BDD78F757575D775-
  1150 0000A981 75758F754776757575-
  1150 0000A98A 757576757575D77575-
  1150 0000A993 75757575757575470E-
  1150 0000A99C 0E472D757575757676-
  1150 0000A9A5 767675757573737576-
  1150 0000A9AE 730E0E0E7575757573-
  1150 0000A9B7 737575D775BC8F7547-
  1150 0000A9C0 7575757573757511C2-
  1150 0000A9C9 BE7575750E75DCD7D5-
  1150 0000A9D2 8F8FD513DAD8D87575-
  1150 0000A9DB 75758F75750E0E7575-
  1150 0000A9E4 8F767675757373750E-
  1150 0000A9ED 7575750E0E0E76750E-
  1150 0000A9F6 747576757590909175-
  1150 0000A9FF 76757575750E470E0E-
  1150 0000AA08 0E757575757575758F-
  1150 0000AA11 75758F757575757573-
  1150 0000AA1A 8F7575BD7647757575-
  1150 0000AA23 7575D790BE767575BE-
  1150 0000AA2C BE75757575757575D5-
  1150 0000AA35 8FBED7D77575D7BD75-
  1150 0000AA3E 757502754745757575-
  1150 0000AA47 750E757575750E7575-
  1150 0000AA50 75BEBE750E0E0E0E73-
  1150 0000AA59 7548AC8F7575757573-
  1150 0000AA62 8F7575477373737375-
  1150 0000AA6B 0E7575757573737573-
  1150 0000AA74 0E73FE730E750E7575-
  1150 0000AA7D 7575730E75D5D47574-
  1150 0000AA86 BB748F737375757590-
  1150 0000AA8F 8F7376730E0E0E4775-
  1150 0000AA98 BD8F75750E75750E75-
  1150 0000AAA1 92BE8F754775757575-
  1150 0000AAAA D5D6BD76BEBEBEBEBD-
  1150 0000AAB3 75BD757575D5BD7575-
  1150 0000AABC 7575477575BD757575-
  1150 0000AAC5 8F7575757575750E75-
  1150 0000AACE 757575757575757575-
  1150 0000AAD7 757376767547757502-
  1150 0000AAE0 757375767676757676-
  1150 0000AAE9 7573414175750E7575-
  1150 0000AAF2 0E7575737575757575-
  1150 0000AAFB D575757575757575BD-
  1150 0000AB04 7575D7D77575757575-
  1150 0000AB0D 7575D5DFD8D8D8DADA-
  1150 0000AB16 DAD575758F757575D5-
  1150 0000AB1F 7575757575BE758FD7-
  1150 0000AB28 75757575737375750E-
  1150 0000AB31 0E750E7375730E4173-
  1150 0000AB3A 767576757576767575-
  1150 0000AB43 7575757575750E7576-
  1150 0000AB4C 7573747575750E7575-
  1150 0000AB55 75757575750E757647-
  1150 0000AB5E 7547767575757575BD-
  1150 0000AB67 76477575BED776BEBD-
  1150 0000AB70 757575758FD7BEBEBE-
  1150 0000AB79 127675D5D5D5757575-
  1150 0000AB82 7547477575BEAA750E-
  1150 0000AB8B 75750E757575BD7575-
  1150 0000AB94 750E0E0E738F0E8E75-
  1150 0000AB9D 757575757573BB75BD-
  1150 0000ABA6 75BDD5BD750E737575-
  1150 0000ABAF D575757373757375FE-
  1150 0000ABB8 757373757575757575-
  1150 0000ABC1 75757475D5750E0E75-
  1150 0000ABCA 0E0E757575BC737575-
  1150 0000ABD3 7575750E75757575D5-
  1150 0000ABDC 757375757575767575-
  1150 0000ABE5 0E4775757575D7D5D5-
  1150 0000ABEE 7676BEBF75757575D7-
  1150 0000ABF7 BD758FBDBD75477575-
  1150 0000AC00 7576BF7676BE8F7576-
  1150 0000AC09 7575757576BE750E75-
  1150 0000AC12 757575757575750E75-
  1150 0000AC1B D77547027575750E47-
  1150 0000AC24 4775767676760E0E74-
  1150 0000AC2D 730E0E7575470E0E75-
  1150 0000AC36 8F757575757575750E-
  1150 0000AC3F 75757575758F757575-
  1150 0000AC48 7575757575757575BD-
  1150 0000AC51 D7D8121212BE757575-
  1150 0000AC5A 8F8F8F7575758F7575-
  1150 0000AC63 757575477575767575-
  1150 0000AC6C 75757575750E0E7575-
  1150 0000AC75 0E0E0E0E74410E0275-
  1150 0000AC7E 767676754775470275-
  1150 0000AC87 7575750E75BE750E73-
  1150 0000AC90 757575757575754775-
  1150 0000AC99 D58F7575BE75757575-
  1150 0000ACA2 75BEBEBEBF75757575-
  1150 0000ACAB 754775BFBED575BD75-
  1150 0000ACB4 76767676BEBEBE7675-
  1150 0000ACBD D5D5D5757575754747-
  1150 0000ACC6 747476908F7575750E-
  1150 0000ACCF 75BDBD757575470E75-
  1150 0000ACD8 4775754775BE757575-
  1150 0000ACE1 2D0E757575738FD312-
  1150 0000ACEA BD75737375BBBD7675-
  1150 0000ACF3 7375757575FE0E0E0E-
  1150 0000ACFC 7575730E7575757373-
  1150 0000AD05 2D0E0E73730E0E7575-
  1150 0000AD0E 7575730E75BD767575-
  1150 0000AD17 7575BD75BB75757502-
  1150 0000AD20 758F75757575757575-
  1150 0000AD29 75757575D5D5BE76BF-
  1150 0000AD32 C27575757675D77547-
  1150 0000AD3B 477575757575757575-
  1150 0000AD44 7575BE757676BE7547-
  1150 0000AD4D 7575757575750E7547-
  1150 0000AD56 75757575750E757675-
  1150 0000AD5F 02757576470E0E7576-
  1150 0000AD68 BEBE768F7474737575-
  1150 0000AD71 8F75750E0E75D57575-
  1150 0000AD7A 75757575757575D775-
  1150 0000AD83 75BD757575757575D7-
  1150 0000AD8C 75757675757575D7D6-
  1150 0000AD95 12BE7675D7D7757575-
  1150 0000AD9E 75757575757575BE75-
  1150 0000ADA7 757576767575757575-
  1150 0000ADB0 750E0E47757575750E-
  1150 0000ADB9 737441747675BD7676-
  1150 0000ADC2 750E0E477575757547-
  1150 0000ADCB 757675757547757575-
  1150 0000ADD4 757547757547757575-
  1150 0000ADDD 757575BD8F75D7BF75-
  1150 0000ADE6 75D575767676757675-
  1150 0000ADEF 76757575D7BD757547-
  1150 0000ADF8 75BEC2BE76BD8FD5BD-
  1150 0000AE01 757575757575737575-
  1150 0000AE0A 758F8F7575757575BD-
  1150 0000AE13 7575750E7576757576-
  1150 0000AE1C 750E737575750E0E2D-
  1150 0000AE25 73750E73730E737373-
  1150 0000AE2E 7575757576BB737575-
  1150 0000AE37 7575FE75730E75BDBD-
  1150 0000AE40 7575BD737375750E0E-
  1150 0000AE49 8FBD7573757374D575-
  1150 0000AE52 0E738F758F7575BDBE-
  1150 0000AE5B D77375757375757575-
  1150 0000AE64 470E73757576758F75-
  1150 0000AE6D 758F75BFBEBFD77575-
  1150 0000AE76 7575757575757575BD-
  1150 0000AE7F 75BD12BE7575D57575-
  1150 0000AE88 7575D7757575477575-
  1150 0000AE91 757575757575757575-
  1150 0000AE9A 750E0E477676757575-
  1150 0000AEA3 0275750E7575767676-
  1150 0000AEAC 8F74738DBE75750E73-
  1150 0000AEB5 754775757575757576-
  1150 0000AEBE 757575D7BE76758FD7-
  1150 0000AEC7 BE8F7575757575BE76-
  1150 0000AED0 7575474775757575D5-
  1150 0000AED9 75D77576758F8FD7D7-
  1150 0000AEE2 BED77575BE75757575-
  1150 0000AEEB 757575757575750E0E-
  1150 0000AEF4 7675757575D574748D-
  1150 0000AEFD 8E8F767676750E0E75-
  1150 0000AF06 02757575757575020E-
  1150 0000AF0F 75757575730E0E4775-
  1150 0000AF18 757575757576470E75-
  1150 0000AF21 BD7575757575BD7575-
  1150 0000AF2A 75D7D77575BE764747-
  1150 0000AF33 757575750E7575BEBE-
  1150 0000AF3C BEBEBD75BB757575BD-
  1150 0000AF45 7575757575470E7575-
  1150 0000AF4E 750E767576BDD5BEBD-
  1150 0000AF57 7575757675BD750E73-
  1150 0000AF60 BB757573750E7375BD-
  1150 0000AF69 0E2D0E0E757575BDBD-
  1150 0000AF72 76757575758F7575FE-
  1150 0000AF7B 75757575BDD5757575-
  1150 0000AF84 D5BDBD75757575D7BE-
  1150 0000AF8D 7575758FD575757575-
  1150 0000AF96 75D775BD75BE757575-
  1150 0000AF9F 75750E0E0E758F7547-
  1150 0000AFA8 0E7575757575757575-
  1150 0000AFB1 BEBF12D77575BDD775-
  1150 0000AFBA 75D7D7BDBE8FBDD7D7-
  1150 0000AFC3 D77575754775BE12D7-
  1150 0000AFCC 7575757547750E7575-
  1150 0000AFD5 D7D78F757575470E0E-
  1150 0000AFDE 0E7675757502477575-
  1150 0000AFE7 757576767675748D74-
  1150 0000AFF0 747475757575757547-
  1150 0000AFF9 75D575D7D776758FBD-
  1150 0000B002 757576757575747375-
  1150 0000B00B 757675767675477575-
  1150 0000B014 750275757512D77576-
  1150 0000B01D 7575757575D4757575-
  1150 0000B026 8FBEBE757575757576-
  1150 0000B02F 758F8F750E7575750E-
  1150 0000B038 0E758F747474747576-
  1150 0000B041 7676750E0E75757575-
  1150 0000B04A 757575750E0E0E4775-
  1150 0000B053 757575758FD7757575-
  1150 0000B05C 754747757575BDD7D7-
  1150 0000B065 757575BD7502BED7D7-
  1150 0000B06E BD75BE7676BD757575-
  1150 0000B077 7575757575C2BFBE75-
  1150 0000B080 758F75757575757575-
  1150 0000B089 7575757575470E7575-
  1150 0000B092 7575758FD7BEBD8F76-
  1150 0000B09B 767575757575BBBD75-
  1150 0000B0A4 757573BBBE75757575-
  1150 0000B0AD 7575BDBD75BDBD7575-
  1150 0000B0B6 7575757575FE7375BD-
  1150 0000B0BF BB7375758FBBBD7575-
  1150 0000B0C8 74BE8F73757575BDBD-
  1150 0000B0D1 7575BDBEBE75767575-
  1150 0000B0DA BD75BE8F7575752D2D-
  1150 0000B0E3 0E0E758F7475757575-
  1150 0000B0EC 7575027575757675D7-
  1150 0000B0F5 D77575BDBD75BEBFBE-
  1150 0000B0FE 76BDD7D7D7D7BDBD75-
  1150 0000B107 4775D512BED7D7D7BD-
  1150 0000B110 75750E0E75D7BE7575-
  1150 0000B119 75757575750E0E7575-
  1150 0000B122 7575470E7502474775-
  1150 0000B12B 75758F74D7D574BDD7-
  1150 0000B134 BF76758F75757575BE-
  1150 0000B13D 75BE7675D575757576-
  1150 0000B146 D78F75D5BE76767676-
  1150 0000B14F 767675750275757575-
  1150 0000B158 027575757575757575-
  1150 0000B161 758F8F8FD775757676-
  1150 0000B16A D77575BDD7BFBE7574-
  1150 0000B173 0E75757574748F7574-
  1150 0000B17C 74BBBDBC7576767576-
  1150 0000B185 027575754747757575-
  1150 0000B18E 750E0E0E0E75757575-
  1150 0000B197 75BDD58F7547750E75-
  1150 0000B1A0 757575D7D71211BE75-
  1150 0000B1A9 47767675D7D7D77575-
  1150 0000B1B2 BEBED5D7BD758FBD75-
  1150 0000B1BB 7576DAC2BE758F7575-
  1150 0000B1C4 7575750275750E7575-
  1150 0000B1CD BD750E0E0E47757575-
  1150 0000B1D6 75BE7575BD75D77575-
  1150 0000B1DF 768F8FBD7575757375-
  1150 0000B1E8 757575737575BD75D7-
  1150 0000B1F1 75757575BD75757575-
  1150 0000B1FA 7575FE75BB75730E73-
  1150 0000B203 7575750E0E74BD7575-
  1150 0000B20C 0E7375757575757575-
  1150 0000B215 75757576BD75BDBD75-
  1150 0000B21E 73BD7576470E757575-
  1150 0000B227 BDBD75757575757575-
  1150 0000B230 8DD48F754775D7D7D7-
  1150 0000B239 D775757576BDBD75BE-
  1150 0000B242 757575BDBDD775BE76-
  1150 0000B24B DABEBEBEBEBE757575-
  1150 0000B254 4775D5BE758F757575-
  1150 0000B25D 76750E2D47BD757575-
  1150 0000B266 757575757575474775-
  1150 0000B26F D5D5BB74BDD7BEBD75-
  1150 0000B278 75D7BE7576BED876BE-
  1150 0000B281 D7BE76767676D7758F-
  1150 0000B28A 138F760276BE757575-
  1150 0000B293 757502027502470275-
  1150 0000B29C 767675767575D4138F-
  1150 0000B2A5 75BE7675767676BE75-
  1150 0000B2AE 767676BE76767675BB-
  1150 0000B2B7 7474D7D5D7D774BCBE-
  1150 0000B2C0 D58F76754702474775-
  1150 0000B2C9 754775757575750E0E-
  1150 0000B2D2 75757575757575758F-
  1150 0000B2DB D5750275757575D7BE-
  1150 0000B2E4 BEBEC2BEBE757575BE-
  1150 0000B2ED 76D7D7BEBEBE7575BD-
  1150 0000B2F6 D7757575D7D7BE75D7-
  1150 0000B2FF 757575BBBC75757575-
  1150 0000B308 0275757575BDD77547-
  1150 0000B311 0E2D2D75757373BEBF-
  1150 0000B31A 76BE75757575BDBE75-
  1150 0000B323 757575BE7575757574-
  1150 0000B32C 73BD8F757575BD7375-
  1150 0000B335 7575757575757373FE-
  1150 0000B33E 7375757573BD757573-
  1150 0000B347 73737575750E758F75-
  1150 0000B350 75730E0E7575BE7575-
  1150 0000B359 BEBE76757575737375-
  1150 0000B362 767547757575BD7575-
  1150 0000B36B 75757575757575748F-
  1150 0000B374 757575D7D7D7D77575-
  1150 0000B37D 0275BD754702470202-
  1150 0000B386 75D71213BE02BED7BE-
  1150 0000B38F BEBEBE7575757575D7-
  1150 0000B398 D7BEBD8F8F75757575-
  1150 0000B3A1 0E4775D77575757575-
  1150 0000B3AA 750E47762D47D7BFD8-
  1150 0000B3B3 7573BBD5D5D575BEBE-
  1150 0000B3BC 7676D712BEBEBF7676-
  1150 0000B3C5 7676767575758FD5BE-
  1150 0000B3CE 7676BE757575757575-
  1150 0000B3D7 75757575757575BEBE-
  1150 0000B3E0 76757575D5D6757576-
  1150 0000B3E9 76767676BEBEBEBED7-
  1150 0000B3F2 BF7676BED7BC758FD5-
  1150 0000B3FB D7D77575BD7612752D-
  1150 0000B404 474775757575757575-
  1150 0000B40D 7575BD760E0E477575-
  1150 0000B416 7575758F8FD7D7BD02-
  1150 0000B41F 758F7575D7BEBEBEC2-
  1150 0000B428 BE76BEBDBDBEBE7575-
  1150 0000B431 76757576BDBD757575-
  1150 0000B43A 75BED7D7D7BD75470E-
  1150 0000B443 8F8DD4757575757575-
  1150 0000B44C 75757575757575750E-
  1150 0000B455 7575BE8F7375BE7575-
  1150 0000B45E BE7575757575757373-
  1150 0000B467 7575BD8F470E7575BB-
  1150 0000B470 74730E737575757575-
  1150 0000B479 7573737373FE737375-
  1150 0000B482 75D5BDBD75750E7575-
  1150 0000B48B 737375BDBEBD757573-
  1150 0000B494 737575757575BEBFBE-
  1150 0000B49D 750E7576757576750E-
  1150 0000B4A6 75BD477575757676BE-
  1150 0000B4AF 757575758D75757676-
  1150 0000B4B8 757575BD757575D7D7-
  1150 0000B4C1 754747477575D7BD76-
  1150 0000B4CA 757576BEBEBEBEBEBE-
  1150 0000B4D3 BE4775757575D7D7BD-
  1150 0000B4DC BE7575BD750E757575-
  1150 0000B4E5 757575757547470E75-
  1150 0000B4EE 7602478F7475BE75BD-
  1150 0000B4F7 BE7575BDD7767676BF-
  1150 0000B500 1212767675BEBE7676-
  1150 0000B509 75757575D7D7767676-
  1150 0000B512 02027575757575BDD7-
  1150 0000B51B 75757576767676BDD7-
  1150 0000B524 D57575757675767676-
  1150 0000B52D 7676BEBEBEFFDA7676-
  1150 0000B536 76BED775D7D4BE7675-
  1150 0000B53F 75BFBED5752D024747-
  1150 0000B548 470E75757575757575-
  1150 0000B551 02470E757575BDBD8F-
  1150 0000B55A D7BEBEBE7575BE7675-
  1150 0000B563 D7BEBEBEBEBEBE47BE-
  1150 0000B56C D6D7BEBE7547474747-
  1150 0000B575 02757575750E7575D5-
  1150 0000B57E BEBD75757575747475-
  1150 0000B587 757575757575757575-
  1150 0000B590 757576754775767575-
  1150 0000B599 75758F757575D7BD75-
  1150 0000B5A2 75BE75750E0E737575-
  1150 0000B5AB BD8F730E7575737575-
  1150 0000B5B4 BBBC73737575757575-
  1150 0000B5BD 7375FE7573BBBB8F8F-
  1150 0000B5C6 BD75757575757574BB-
  1150 0000B5CF BB8FBD75758F8F7375-
  1150 0000B5D8 750276BEBF750E0E0E-
  1150 0000B5E1 75BD750247750E7575-
  1150 0000B5EA 757575757575757547-
  1150 0000B5F3 4713BD767676027575-
  1150 0000B5FC 75757575D7750E75BD-
  1150 0000B605 75BD75D7BD47757575-
  1150 0000B60E D7D775757575BE7576-
  1150 0000B617 757575BEBE7676762D-
  1150 0000B620 027547757576767575-
  1150 0000B629 75757575758F757676-
  1150 0000B632 75BCD5BE75BE757575-
  1150 0000B63B 757575757576BF13D7-
  1150 0000B644 BED7DB12BF75757575-
  1150 0000B64D 757575757576767676-
  1150 0000B656 757575757575757675-
  1150 0000B65F 0202767575BED77575-
  1150 0000B668 75767576BE12BE7576-
  1150 0000B671 901211C2767676D5D5-
  1150 0000B67A 757576BE7675BD7574-
  1150 0000B683 7475020275750E0E75-
  1150 0000B68C 757575757575027575-
  1150 0000B695 7575BD7575BD75BEBE-
  1150 0000B69E 757575757675BE75BE-
  1150 0000B6A7 BEDAD7D77575757575-
  1150 0000B6B0 BF75757547477575D5-
  1150 0000B6B9 BE757575BD75757575-
  1150 0000B6C2 7575758F7475757575-
  1150 0000B6CB 76767575BD757575BE-
  1150 0000B6D4 75474775757575750E-
  1150 0000B6DD 73BBD7D9D78F757576-
  1150 0000B6E6 7575737575BBBCBBD3-
  1150 0000B6EF 75757575750E750E73-
  1150 0000B6F8 BB75757575757575FE 
  1151 0000B701 6129                    treesize:dw 10593
  1152                                  
  1153 0000B703 1E1E1D1E1E1D1D6565-     sky:db 30,30,29,30,30,29,29,101,101,101,101,30,30,30,30,30,30,30,30,30,30,15,15,30,30,30,101,77,77,77,53,53,53,53,53,77,77,77,77,77,77,77,77,77,101,101,101,101,101,101,101,101,101,101,101,101,101,101,101,101,101,101,101,101,101,101,101,101,101,101,101,101,101,101,101,101,101,101,101,101,101,101,101,101,101,101,101,101,101,101,101,101,101,101,101,101,101,101,29,29,101,101,101,101,101,29,29,29,29,30,30,30,30,30,30,30,30,30,30,30,30,30,30,30,30,30,30,30,30,30,30,30,30,30,30,30,30,30,30,30,30,30,30,30,30,30,30,30,30,30,30,30,30,30,30,30,30,30,30,30,254,29,29,29,29,29,29,29,101,101,101,101,30,30,30,30,30,30,30,30,15,15,15,15,15,30,30,30,101,77,53,53,53,53,53,53,53,53,53,78,77,77,102,101,101,101,101,101,101,101,101,101,101,101,101,101,101,101,101,101,101,101,101,101,101,101,101,101,101,101,101,101,101,101,101,101,101,101,101,101,101,101,101,101,101,101,101,101,101,101,101,101,101,101,101,101,101,29,29,29,29,29,101,29,29,29,29,29,29,30,30,30,30,30,30,30,30,30,30,30,30,30,30,30,30,30,30,30,30,30,30,30,30,30,30,30...
  1153 0000B70C 65651E1E1E1E1E1E1E-
  1153 0000B715 1E1E1E0F0F1E1E1E65-
  1153 0000B71E 4D4D4D35353535354D-
  1153 0000B727 4D4D4D4D4D4D4D4D65-
  1153 0000B730 656565656565656565-
  1153 0000B739 656565656565656565-
  1153 0000B742 656565656565656565-
  1153 0000B74B 656565656565656565-
  1153 0000B754 656565656565656565-
  1153 0000B75D 65656565656565651D-
  1153 0000B766 1D65656565651D1D1D-
  1153 0000B76F 1D1E1E1E1E1E1E1E1E-
  1153 0000B778 1E1E1E1E1E1E1E1E1E-
  1153 0000B781 1E1E1E1E1E1E1E1E1E-
  1153 0000B78A 1E1E1E1E1E1E1E1E1E-
  1153 0000B793 1E1E1E1E1E1E1E1E1E-
  1153 0000B79C 1E1E1E1E1E1E1EFE1D-
  1153 0000B7A5 1D1D1D1D1D1D656565-
  1153 0000B7AE 651E1E1E1E1E1E1E1E-
  1153 0000B7B7 0F0F0F0F0F1E1E1E65-
  1153 0000B7C0 4D3535353535353535-
  1153 0000B7C9 354E4D4D6665656565-
  1153 0000B7D2 656565656565656565-
  1153 0000B7DB 656565656565656565-
  1153 0000B7E4 656565656565656565-
  1153 0000B7ED 656565656565656565-
  1153 0000B7F6 656565656565656565-
  1153 0000B7FF 65656565651D1D1D1D-
  1153 0000B808 1D651D1D1D1D1D1D1E-
  1153 0000B811 1E1E1E1E1E1E1E1E1E-
  1153 0000B81A 1E1E1E1E1E1E1E1E1E-
  1153 0000B823 1E1E1E1E1E1E1E1E1E-
  1153 0000B82C 1E1E1E1E1E1E1E1E1E-
  1153 0000B835 1E1E1E1E1E1E1E1E1E-
  1153 0000B83E 1E1E1E1E1E1EFE661D-
  1153 0000B847 1D1E1D1D1D65656565-
  1153 0000B850 1E1E1E1E1E1E1E1E0F-
  1153 0000B859 0F0F0F0F1E1E1E6565-
  1153 0000B862 4D3535353535353535-
  1153 0000B86B 4D4D4D4D6565656565-
  1153 0000B874 656565656565656565-
  1153 0000B87D 656565656565656565-
  1153 0000B886 656565656565656565-
  1153 0000B88F 656565656565656565-
  1153 0000B898 65656565651D656565-
  1153 0000B8A1 65656565651D1D1D65-
  1153 0000B8AA 651D1D1D1D1D1D1D1E-
  1153 0000B8B3 1E1E1E1E1E1E1E1E1E-
  1153 0000B8BC 1E1E1E1E1E1E1E1E1E-
  1153 0000B8C5 1E1E1E1E1E1E1E1E1E-
  1153 0000B8CE 1E1E1E1E1E1E1E1E1E-
  1153 0000B8D7 1E1E1E1E1E1E1E1E1E-
  1153 0000B8E0 1E1E1E1E1EFE66651D-
  1153 0000B8E9 1E1D1D1D656565651E-
  1153 0000B8F2 1E1E1E1E1E1E1E1E0F-
  1153 0000B8FB 0F0F0F0F1E1E1E654D-
  1153 0000B904 35353535353535354D-
  1153 0000B90D 4D4D4D656565656565-
  1153 0000B916 656565656565656565-
  1153 0000B91F 656565656565656565-
  1153 0000B928 656565656565656565-
  1153 0000B931 656565656565656565-
  1153 0000B93A 65651D1D651D1D1D65-
  1153 0000B943 656565656565656565-
  1153 0000B94C 651D1D1D1D1D1D1D1E-
  1153 0000B955 1E1E1E1E1E1E1E1E1E-
  1153 0000B95E 1E1E1E1E1E1E1E1E1E-
  1153 0000B967 1E1E1E1E1E1E1E1E1E-
  1153 0000B970 1E1E1E1E1E1E1E1E1E-
  1153 0000B979 1E1E1E1E1E1E1E1E1E-
  1153 0000B982 1E1E1E1EFE65651D1D-
  1153 0000B98B 1D1D1D656565651E1E-
  1153 0000B994 1E1E1E1E1E1E1E0F0F-
  1153 0000B99D 0F0F1E1E1E1E654D35-
  1153 0000B9A6 353535353535354E4D-
  1153 0000B9AF 4D4D4D656565656565-
  1153 0000B9B8 656565656565656565-
  1153 0000B9C1 656565656565656565-
  1153 0000B9CA 656565656565656565-
  1153 0000B9D3 656565656565656565-
  1153 0000B9DC 65656565651D65651D-
  1153 0000B9E5 1D1D1D1D1D1D656565-
  1153 0000B9EE 6565651D1D1D1D1D1E-
  1153 0000B9F7 1E1E1E1E1E1E1E1E1E-
  1153 0000BA00 1E1E1E1E1E1E1E1E1E-
  1153 0000BA09 1E1E1E1E1E1E1E1E1E-
  1153 0000BA12 1E1E1E1E1E1E1E1E1E-
  1153 0000BA1B 1E1E1E1E1E1E1E1E1E-
  1153 0000BA24 1E1E1EFE1E1E1D1D1D-
  1153 0000BA2D 1D1D6565651D1E1E1E-
  1153 0000BA36 1E1E1E1E1E1E1E1E0F-
  1153 0000BA3F 0F1E1E1E1E1E654D35-
  1153 0000BA48 353535353535354D4D-
  1153 0000BA51 4D4D65656565656565-
  1153 0000BA5A 656566656565656565-
  1153 0000BA63 656565656565656565-
  1153 0000BA6C 656565656565656565-
  1153 0000BA75 656565656565656565-
  1153 0000BA7E 656565656565656565-
  1153 0000BA87 65651D1D1D1D1D1D1D-
  1153 0000BA90 6565651D1D1D1D1D1D-
  1153 0000BA99 1D1E1E1E1E1E1E1E1E-
  1153 0000BAA2 1E1E1E1E1E1E1E1E1E-
  1153 0000BAAB 1E1E1E1E1E1E1E1E1E-
  1153 0000BAB4 1E1E1E1E1E1E1E1E1E-
  1153 0000BABD 1E1E1E1E1E1E1E1E1E-
  1153 0000BAC6 1E1EFE1E1E1E1D1D1D-
  1153 0000BACF 1D651E1E1E1E1E1E1E-
  1153 0000BAD8 1E1E1E1E1E1E0F0F1E-
  1153 0000BAE1 1E1E1E1E1E1E653535-
  1153 0000BAEA 353535353535354E35-
  1153 0000BAF3 354E66651D1E65654D-
  1153 0000BAFC 354D4D666565656665-
  1153 0000BB05 666565656565656565-
  1153 0000BB0E 656565656565656565-
  1153 0000BB17 656565656565656565-
  1153 0000BB20 656565656565656565-
  1153 0000BB29 6565656565651D1D1D-
  1153 0000BB32 1D1D656565651D1D1D-
  1153 0000BB3B 1D1E1E1E1E1E1E1E1E-
  1153 0000BB44 1E1E1E1E1E1E1E1E1E-
  1153 0000BB4D 1E1E1E1E1E1E1E1E1E-
  1153 0000BB56 1E1E1E1E65661E1E1E-
  1153 0000BB5F 1E1E1E1E1E1E1E1E1E-
  1153 0000BB68 1EFE1E1E1E1D651D1D-
  1153 0000BB71 651D1E1E1E1E1E1E1E-
  1153 0000BB7A 1E1E1E1E1E1E1E1E1E-
  1153 0000BB83 1E1E1E1E1E65353535-
  1153 0000BB8C 35353535354E4D4D4E-
  1153 0000BB95 66651D1E1E1E1E654D-
  1153 0000BB9E 664D66656565666566-
  1153 0000BBA7 656565656565656565-
  1153 0000BBB0 656565656565656565-
  1153 0000BBB9 656565656565656565-
  1153 0000BBC2 656565656565656565-
  1153 0000BBCB 65656565651D1D1D1D-
  1153 0000BBD4 1D1D1D656565656565-
  1153 0000BBDD 1D1E1E1E1E1E1E1E1E-
  1153 0000BBE6 1E1E1E1E1E1E1E1E1E-
  1153 0000BBEF 1E1E1E1E1E1E1E0F1E-
  1153 0000BBF8 1E1E1E1E661E1E1E1E-
  1153 0000BC01 1E1E1E1E1E1E1E1E1E-
  1153 0000BC0A FE1E1E1E1D651D6566-
  1153 0000BC13 651D1D1D1E1E1E1E1E-
  1153 0000BC1C 1E1E1E1E1E1E1E1E1E-
  1153 0000BC25 1E1E1E1E6535353535-
  1153 0000BC2E 353535354E4D4D4D4D-
  1153 0000BC37 651E1E1E1E1E1E6565-
  1153 0000BC40 4D6665656566666566-
  1153 0000BC49 656565656565656565-
  1153 0000BC52 656565656565656565-
  1153 0000BC5B 656565656565656565-
  1153 0000BC64 656565656565656565-
  1153 0000BC6D 656565651D651D1D1D-
  1153 0000BC76 1D1D1D651D651D651D-
  1153 0000BC7F 1D1E1E1E1E1E1E1E1E-
  1153 0000BC88 1E1E1E1E1E1E1E1E1E-
  1153 0000BC91 1E1E1E1E1E1E1E1E1E-
  1153 0000BC9A 1E1E1E651D1E1E1E1E-
  1153 0000BCA3 1E1E1E1E1E1E1E1EFE-
  1153 0000BCAC 65656565651D656565-
  1153 0000BCB5 65656565651E1E1E1E-
  1153 0000BCBE 1E1E1E1E1E1E1E1E1E-
  1153 0000BCC7 1E1E1E1E4D35353535-
  1153 0000BCD0 3535354D4D4D4D651D-
  1153 0000BCD9 1E1E1E1E1E65656566-
  1153 0000BCE2 666565656666656665-
  1153 0000BCEB 656666666565656565-
  1153 0000BCF4 656565656565656566-
  1153 0000BCFD 656565656565656565-
  1153 0000BD06 656565656565656565-
  1153 0000BD0F 656565656565651D1D-
  1153 0000BD18 1D1D1D1D1D1D651D1D-
  1153 0000BD21 1D1E1E1E1E1E1E1E1E-
  1153 0000BD2A 1E1E1E1E1E1E1E1E1E-
  1153 0000BD33 1E1E1E1E1E1E1E1E1E-
  1153 0000BD3C 1E1E1E1E1E1E1E1E1E-
  1153 0000BD45 1E1E1E1E1E1E1EFE65-
  1153 0000BD4E 666665656565656565-
  1153 0000BD57 65656565651E1E1E1E-
  1153 0000BD60 1E1E1E1E1E1E1E1E1E-
  1153 0000BD69 1E1E1E654D35353535-
  1153 0000BD72 35354E4D65651D1E1E-
  1153 0000BD7B 1E1E1E1E6565666666-
  1153 0000BD84 656565656565656566-
  1153 0000BD8D 666666666565656565-
  1153 0000BD96 656565656565666666-
  1153 0000BD9F 666565656565656565-
  1153 0000BDA8 656565656565656565-
  1153 0000BDB1 656565656565651D1D-
  1153 0000BDBA 651D1D1D1D1D1D1D1D-
  1153 0000BDC3 1D1D1D1D1E1E1E1E1E-
  1153 0000BDCC 1E1E1E1E1E1E1E1E1E-
  1153 0000BDD5 1E1E1E1E1E1E1E1E1E-
  1153 0000BDDE 1E1E1E1E1E1E1E1E1E-
  1153 0000BDE7 1E1E1E1E1E1EFE654E-
  1153 0000BDF0 666565656565656565-
  1153 0000BDF9 656565651E1E1E1E1E-
  1153 0000BE02 1E1E1E1E1E1E1E1E1E-
  1153 0000BE0B 1E1E1E654D35353535-
  1153 0000BE14 354D4D65661E1E1E1E-
  1153 0000BE1D 656565656666656565-
  1153 0000BE26 656565656666666666-
  1153 0000BE2F 666666666666656565-
  1153 0000BE38 656565656565666666-
  1153 0000BE41 666666666666666666-
  1153 0000BE4A 666665656565656565-
  1153 0000BE53 656565656565656565-
  1153 0000BE5C 651D1D1D1D1D1D1D1D-
  1153 0000BE65 651D1D1E1E1E1E1E1E-
  1153 0000BE6E 1E1E1E1E1E1E1E1E1E-
  1153 0000BE77 1E1E1E1E1E1E1E1E1E-
  1153 0000BE80 1E1E1E1E1E1E1E1E1E-
  1153 0000BE89 1E1E1E1E1EFE654E66-
  1153 0000BE92 656565656565656565-
  1153 0000BE9B 6565651D1E1E1E1E1E-
  1153 0000BEA4 1E1E1E1E1E1E1E1E1E-
  1153 0000BEAD 1E1E1E653535353535-
  1153 0000BEB6 4D6665651D1E656565-
  1153 0000BEBF 656565666665656565-
  1153 0000BEC8 656566666666666666-
  1153 0000BED1 6666666666664D6666-
  1153 0000BEDA 666666666665656565-
  1153 0000BEE3 656565656566666666-
  1153 0000BEEC 656565656566666665-
  1153 0000BEF5 656565656565656565-
  1153 0000BEFE 6565651D1D1D65651D-
  1153 0000BF07 1D1D651D1E1E1E1E1E-
  1153 0000BF10 1E1E1E1E1E1E1E1E1E-
  1153 0000BF19 1E1E1E1E1E1E1E1E1E-
  1153 0000BF22 1E1E1E1E1E1E1E1E1E-
  1153 0000BF2B 1E1E1E1EFE65666665-
  1153 0000BF34 656565666665656565-
  1153 0000BF3D 6565651E1E1E1E1E1E-
  1153 0000BF46 1E1E1E1E1E1E1E1E1E-
  1153 0000BF4F 1E1D654D353535354D-
  1153 0000BF58 666666656565656666-
  1153 0000BF61 666666666666666666-
  1153 0000BF6A 666666666666666666-
  1153 0000BF73 666666666666666666-
  1153 0000BF7C 666666666666656565-
  1153 0000BF85 666665666666666665-
  1153 0000BF8E 656565656565656566-
  1153 0000BF97 666565656565656565-
  1153 0000BFA0 65656565651D651D1D-
  1153 0000BFA9 1D1D1D1D1E1E1E1E1E-
  1153 0000BFB2 1E1E1E1E1E1E1E1E1E-
  1153 0000BFBB 1E1E1E1E1E1E1E1E65-
  1153 0000BFC4 1E1E1E1E1E1E1E1E1E-
  1153 0000BFCD 1E1E1EFE65664D6666-
  1153 0000BFD6 666666656565656565-
  1153 0000BFDF 651E1E1E1E1E1E1E1E-
  1153 0000BFE8 1E1E1E1E1E1E1E1E1E-
  1153 0000BFF1 1D654D353535354D66-
  1153 0000BFFA 666565656566666666-
  1153 0000C003 656666666666666666-
  1153 0000C00C 66666666666666664D-
  1153 0000C015 4D4D4D666666666666-
  1153 0000C01E 666666666666666666-
  1153 0000C027 666666666666666565-
  1153 0000C030 656565656665656665-
  1153 0000C039 656666656565656565-
  1153 0000C042 656565656565651D1D-
  1153 0000C04B 1D1D1D1D1E1E1E1E1E-
  1153 0000C054 1E1E1E1E1E1E1E1E1E-
  1153 0000C05D 1E1E1E1E1E1E656565-
  1153 0000C066 1E1E1E1E1E1E1E1E1E-
  1153 0000C06F 1E1EFE654D4E666666-
  1153 0000C078 656665656565656565-
  1153 0000C081 1E1E1E1E1E1E1E1E1E-
  1153 0000C08A 1E1E1E1E1E1E1E1E1D-
  1153 0000C093 654D353535354D6666-
  1153 0000C09C 656565656666666666-
  1153 0000C0A5 666666666666666666-
  1153 0000C0AE 666666666666666666-
  1153 0000C0B7 666666666666666666-
  1153 0000C0C0 666666666666666666-
  1153 0000C0C9 666666666666666666-
  1153 0000C0D2 666666666666656565-
  1153 0000C0DB 666666666666656565-
  1153 0000C0E4 656565656565656565-
  1153 0000C0ED 651D1D1D1E1E1E1E1E-
  1153 0000C0F6 1E1E1E1E1E1E1E1E1E-
  1153 0000C0FF 1E1E1E1E1E1E4D4D65-
  1153 0000C108 1E1E1E1E1E1E1E1E1E-
  1153 0000C111 1EFE654E4E4E666666-
  1153 0000C11A 656565656565656565-
  1153 0000C123 1E1E1E1E1E1E1E1E1E-
  1153 0000C12C 1E1E1E1E1E1E1E6565-
  1153 0000C135 664E3535354D666565-
  1153 0000C13E 656565666666666666-
  1153 0000C147 666666666666666666-
  1153 0000C150 666666666666666666-
  1153 0000C159 666666666666666666-
  1153 0000C162 666666666666666666-
  1153 0000C16B 666666666666666666-
  1153 0000C174 666666666665656566-
  1153 0000C17D 666666666665656565-
  1153 0000C186 656565656565656565-
  1153 0000C18F 651D1D1E1E1E1E1E1E-
  1153 0000C198 1E1E1E1E1E1E1E1E1E-
  1153 0000C1A1 1E1E1E1E654D66651E-
  1153 0000C1AA 1E1E1E1E1E1E1E1E65-
  1153 0000C1B3 FE654D4E4D4D666665-
  1153 0000C1BC 65656565656565651E-
  1153 0000C1C5 1E1E1E1E1E1E1D1E1E-
  1153 0000C1CE 1E1E1E1E1E1D656566-
  1153 0000C1D7 654D35354E4D656665-
  1153 0000C1E0 656566666666666666-
  1153 0000C1E9 666666666666666666-
  1153 0000C1F2 666666666666666666-
  1153 0000C1FB 666666666666666666-
  1153 0000C204 666666666666666666-
  1153 0000C20D 666666666666666666-
  1153 0000C216 666666666665666666-
  1153 0000C21F 66666665656565661C-
  1153 0000C228 1C6665656565656565-
  1153 0000C231 651D1D1E1E1E1E1E1E-
  1153 0000C23A 1E1E1E1E1E1E1E1E1E-
  1153 0000C243 1E1E1E656666651D1D-
  1153 0000C24C 1E1E1E65651E1E65FE-
  1153 0000C255 65654E4D4D66666665-
  1153 0000C25E 65656565656565651E-
  1153 0000C267 1E1E1E1E6565656565-
  1153 0000C270 656565656565656565-
  1153 0000C279 654D354E4D66656565-
  1153 0000C282 656666666666666666-
  1153 0000C28B 666666666666666666-
  1153 0000C294 666666666666666666-
  1153 0000C29D 666666666666666666-
  1153 0000C2A6 666666666666666666-
  1153 0000C2AF 666666666666666666-
  1153 0000C2B8 666666666666666666-
  1153 0000C2C1 666665656565656666-
  1153 0000C2CA 666665656565656565-
  1153 0000C2D3 651D1D1E1E1E1E1E1E-
  1153 0000C2DC 1E1E1E1E1E1E1E1E1E-
  1153 0000C2E5 1E1E654D4D65656565-
  1153 0000C2EE 656565651E1E65FE65-
  1153 0000C2F7 65664D4D6666666565-
  1153 0000C300 656565656565651E65-
  1153 0000C309 656565656565656565-
  1153 0000C312 65656566664D656565-
  1153 0000C31B 653535356665656565-
  1153 0000C324 666666666666666666-
  1153 0000C32D 666666666666666666-
  1153 0000C336 666666666666666666-
  1153 0000C33F 666666666666666666-
  1153 0000C348 666666666666666666-
  1153 0000C351 666666666666666666-
  1153 0000C35A 666666666666666666-
  1153 0000C363 666665656565666666-
  1153 0000C36C 666666656565651D65-
  1153 0000C375 651D1D1E1E1E1E1E1E-
  1153 0000C37E 1E1E1E1E1E1E1E1E1E-
  1153 0000C387 1E654D4D4D65656565-
  1153 0000C390 651E1E1E6565FE6565-
  1153 0000C399 66664D666666666565-
  1153 0000C3A2 656565656565656565-
  1153 0000C3AB 656565656565656565-
  1153 0000C3B4 6566666666651E1E65-
  1153 0000C3BD 4D3535651E1E656566-
  1153 0000C3C6 666666666666666666-
  1153 0000C3CF 666666666666666666-
  1153 0000C3D8 666666666666666666-
  1153 0000C3E1 666666666666666666-
  1153 0000C3EA 666666666666664D4D-
  1153 0000C3F3 666666664D66666666-
  1153 0000C3FC 666666666666666666-
  1153 0000C405 666666666665656566-
  1153 0000C40E 66666665661C651D65-
  1153 0000C417 1D1D1D651E1E1E1E1E-
  1153 0000C420 1E1E1E1E1E1E1E1E1E-
  1153 0000C429 654D4E4D4D654D4D65-
  1153 0000C432 1E1E656565FE656666-
  1153 0000C43B 664D4D666666656565-
  1153 0000C444 656565656565656565-
  1153 0000C44D 656565654D65656565-
  1153 0000C456 656565651E1E1E654D-
  1153 0000C45F 4D4D1E1E1E65656666-
  1153 0000C468 666666666666666666-
  1153 0000C471 666666666666666666-
  1153 0000C47A 666666666666666666-
  1153 0000C483 666666666666664D66-
  1153 0000C48C 4D664D4D664D4D664D-
  1153 0000C495 4D4D4D666666666666-
  1153 0000C49E 666666666666666666-
  1153 0000C4A7 666666666666666666-
  1153 0000C4B0 666666666665651D65-
  1153 0000C4B9 1D65651D1E1E1E1E1E-
  1153 0000C4C2 1E1E1E1E1E1E1E1E65-
  1153 0000C4CB 4D35354D4D4D4D651E-
  1153 0000C4D4 1E656565FE6566664D-
  1153 0000C4DD 4D4D4D666665656565-
  1153 0000C4E6 656565656565656565-
  1153 0000C4EF 656565666565651E1E-
  1153 0000C4F8 1E1E1E1E1E1E656565-
  1153 0000C501 1E1E1E1E6565656666-
  1153 0000C50A 666666666666666666-
  1153 0000C513 666666666666666666-
  1153 0000C51C 666666666666666666-
  1153 0000C525 666666666666666666-
  1153 0000C52E 666666666666666666-
  1153 0000C537 666666666666666666-
  1153 0000C540 666666666666666666-
  1153 0000C549 666666666666666666-
  1153 0000C552 66666666656565651D-
  1153 0000C55B 651D1D1D1D1E1E1E1E-
  1153 0000C564 1E1E1E1E1E1E1E6565-
  1153 0000C56D 4D354D4D4D4D4D6665-
  1153 0000C576 656565FE66664D4D4D-
  1153 0000C57F 4D4D66666666656565-
  1153 0000C588 656565656565656565-
  1153 0000C591 6565651E1E1E1E1E1E-
  1153 0000C59A 1E1E1E1E1E1E651E1E-
  1153 0000C5A3 1E1E1E656566666666-
  1153 0000C5AC 666666666666666666-
  1153 0000C5B5 666666666666666666-
  1153 0000C5BE 666666666666666666-
  1153 0000C5C7 666666666666666666-
  1153 0000C5D0 666666666666666666-
  1153 0000C5D9 666666666666664D66-
  1153 0000C5E2 664D4D664D66666666-
  1153 0000C5EB 666666666666666565-
  1153 0000C5F4 656566666565656565-
  1153 0000C5FD 1D656565651D1E1E1E-
  1153 0000C606 1E1E1E1E1E1E656565-
  1153 0000C60F 4D4D4D4D4D4E4E6565-
  1153 0000C618 654DFE4D4D4D4D4D4D-
  1153 0000C621 4D4D4D4D6666656565-
  1153 0000C62A 656565656565656565-
  1153 0000C633 65651E1E1E1E1E1E1E-
  1153 0000C63C 1E1E1E1E1E1E1E1E1E-
  1153 0000C645 1E1E65656565666666-
  1153 0000C64E 666666666666666666-
  1153 0000C657 666666666666666666-
  1153 0000C660 6666664D4D4D666666-
  1153 0000C669 66664D664D66666666-
  1153 0000C672 4D4D4E4E4D4D4D4D4E-
  1153 0000C67B 4E4E4E4E4E4D666666-
  1153 0000C684 666666666666666666-
  1153 0000C68D 666666666666656565-
  1153 0000C696 656565656565656565-
  1153 0000C69F 656565651D1D1E1E1E-
  1153 0000C6A8 1E1E1E1E6565656566-
  1153 0000C6B1 4D4D4D4D6665656566-
  1153 0000C6BA 4DFE4D4D4D4D4D4D66-
  1153 0000C6C3 4D4D4D4D4D66666565-
  1153 0000C6CC 65656565656565651E-
  1153 0000C6D5 1E1E1E1E1E1E1E1E1E-
  1153 0000C6DE 1E1E1E1E1E1E1E1E1E-
  1153 0000C6E7 1E1E65656566666666-
  1153 0000C6F0 66664D4D4D66666666-
  1153 0000C6F9 666666666666666666-
  1153 0000C702 664D4D4D4D4D4D4D4D-
  1153 0000C70B 4D66664D4D4E4D4D4D-
  1153 0000C714 4D4D4D4D4D4D4D4D4D-
  1153 0000C71D 4E4E4E4E4E4E4E6666-
  1153 0000C726 66666666664D4D4D66-
  1153 0000C72F 666666666666666666-
  1153 0000C738 666665666665656565-
  1153 0000C741 6565651D1D1E1E1E1E-
  1153 0000C74A 1E1E1D65656565654D-
  1153 0000C753 4D4D4D6565654D4D4D-
  1153 0000C75C FE4D4D4D4D4D4D4D4D-
  1153 0000C765 4D4D66664D66666565-
  1153 0000C76E 656565656565651E1E-
  1153 0000C777 1E1E1E1E1E1E1E1E1E-
  1153 0000C780 1E1E1E1E1E1E1E1E1E-
  1153 0000C789 656565656666666666-
  1153 0000C792 664D4D4D4D4D4D4D4D-
  1153 0000C79B 666666666666666666-
  1153 0000C7A4 4D4D4D4D4D4D4D4D4D-
  1153 0000C7AD 4D4D4D4D4D4D4D4D4D-
  1153 0000C7B6 4D4D4D4D4D4D4D4D4D-
  1153 0000C7BF 4E4E4E4E4D4E4D4D4D-
  1153 0000C7C8 4D4D4D4D4D4D4D4D4D-
  1153 0000C7D1 4D6666666666666666-
  1153 0000C7DA 666666656665656565-
  1153 0000C7E3 65651D1D1E1E1E1E1E-
  1153 0000C7EC 1D6565656565654D35-
  1153 0000C7F5 354D65654D4E4D4DFE-
  1153 0000C7FE 4D4D4D4D4D4D4D4D4D-
  1153 0000C807 4D6666666666656565-
  1153 0000C810 6565656565651E1E1E-
  1153 0000C819 1E1E1E1E1E1E1E1E1E-
  1153 0000C822 1E1E1E1E1E1E1E6565-
  1153 0000C82B 656565656666666666-
  1153 0000C834 666666664D4D4D4D66-
  1153 0000C83D 666666666666664D4D-
  1153 0000C846 4D4D4D4D4D4D4D4D4D-
  1153 0000C84F 4D4D4D4E4D4D4D4D4D-
  1153 0000C858 4D4E4D4D4D4D4D4D4E-
  1153 0000C861 4E4D4D4D4D4D4D4D4D-
  1153 0000C86A 4D4D4D4D4D4D4D4D4D-
  1153 0000C873 4D66664D4D66666666-
  1153 0000C87C 666666666565656565-
  1153 0000C885 65651D1E1E1E1E1E65-
  1153 0000C88E 1D656565664D4E3535-
  1153 0000C897 354D654D4D4D4DFE4D-
  1153 0000C8A0 4D4E4D4D4D4D4D4D4D-
  1153 0000C8A9 4D6666666666656565-
  1153 0000C8B2 6565656565651E1E1E-
  1153 0000C8BB 1E1E1E1E1E1E1E1E1E-
  1153 0000C8C4 1E1E651D1D1D656565-
  1153 0000C8CD 656565666666666666-
  1153 0000C8D6 6666664D4D664D6666-
  1153 0000C8DF 66666666664D4D4D4D-
  1153 0000C8E8 4D4D4D4D4D4D4D4D4E-
  1153 0000C8F1 4D4E4E4D4D4E4E4D4E-
  1153 0000C8FA 4E4E4E4D4D4E4E4E4E-
  1153 0000C903 4D4D4D4D4D4D4D4D4D-
  1153 0000C90C 4D4D4D4D4D4D4D4D4D-
  1153 0000C915 66664D4D6666666666-
  1153 0000C91E 666665656565656565-
  1153 0000C927 651D1D1D651D1E1D1D-
  1153 0000C930 656665654D35353535-
  1153 0000C939 4D4D4D354D4DFE4D4D-
  1153 0000C942 4E4D4D4D4D4D4D4D4D-
  1153 0000C94B 666666666665656565-
  1153 0000C954 65656565651E1E1E1E-
  1153 0000C95D 1E1E1E1E1E1E1E1E1E-
  1153 0000C966 1D1D1D1D6565656565-
  1153 0000C96F 656565666666666666-
  1153 0000C978 666666666666666666-
  1153 0000C981 66666666664D4D4D4D-
  1153 0000C98A 4D4D4D4D4D4E4E4D4D-
  1153 0000C993 4E4E4E4E4E4E4E4E4E-
  1153 0000C99C 4E4E4D4D4E4E4E4E4E-
  1153 0000C9A5 4D4D4D4D4D4D4D4D4D-
  1153 0000C9AE 4D4D4D4D4D4D4D4D4D-
  1153 0000C9B7 66664D4D6666666666-
  1153 0000C9C0 666565656565656565-
  1153 0000C9C9 651D65651E1E1D6565-
  1153 0000C9D2 654D4D4D3535353535-
  1153 0000C9DB 4D4D35354DFE354D4E-
  1153 0000C9E4 4D4D4D4D4D4D4D4D66-
  1153 0000C9ED 666666666665656565-
  1153 0000C9F6 656565651E1E1E1E1E-
  1153 0000C9FF 1E1E1E1E1E1E1E1E1D-
  1153 0000CA08 651D65656565656565-
  1153 0000CA11 656565656565656666-
  1153 0000CA1A 666666666666666666-
  1153 0000CA23 666666664D4D4D4D4D-
  1153 0000CA2C 4D4D4D4D4D4E4E4D4E-
  1153 0000CA35 4D4E4E4E4E4E4E4E4E-
  1153 0000CA3E 4E4D4D4E4E4E4E4E4D-
  1153 0000CA47 4D4D4D4D4D4D4D4D4D-
  1153 0000CA50 4D4D4D4D4D4D4D4D66-
  1153 0000CA59 66664D666666666666-
  1153 0000CA62 666565656565656565-
  1153 0000CA6B 1D1D1D1E1E1D65654D-
  1153 0000CA74 4D4D4D4E3535353535-
  1153 0000CA7D 35353535FE354D4D4E-
  1153 0000CA86 4D4D4D4D4D4D4D6666-
  1153 0000CA8F 666666666565656565-
  1153 0000CA98 6565651E1E1E1E1E1E-
  1153 0000CAA1 1E1E1E1E1D1D1D1D65-
  1153 0000CAAA 656565656565656565-
  1153 0000CAB3 656565656565656666-
  1153 0000CABC 666666666666666666-
  1153 0000CAC5 66666666664D4D4D4D-
  1153 0000CACE 4D4D4D4D4E4E4D4E4D-
  1153 0000CAD7 4E4D4D4E4E4E4E4E4D-
  1153 0000CAE0 4D4D4E4E4D4E4D4E4D-
  1153 0000CAE9 4D4D4D4D4D4D4D4D4D-
  1153 0000CAF2 4D4D4D4D4D4D4D4D66-
  1153 0000CAFB 666666666666666666-
  1153 0000CB04 656565656565651D65-
  1153 0000CB0D 651D1E1D1D1D654D4D-
  1153 0000CB16 4D4D35353535353535-
  1153 0000CB1F 353535FE354D4D4D4D-
  1153 0000CB28 4D4D4D4D4D4D4D4D66-
  1153 0000CB31 666666656565656565-
  1153 0000CB3A 65651D1E1E1E1E1E1E-
  1153 0000CB43 1E1E1E1D1D1D1D6565-
  1153 0000CB4C 656565656565656665-
  1153 0000CB55 656565656566666665-
  1153 0000CB5E 6566666666664D4D4D-
  1153 0000CB67 4D4E666666664D4D4D-
  1153 0000CB70 4D4E4D4E4E4D4E4D4E-
  1153 0000CB79 4D4D4E4E4E4E4E4D4D-
  1153 0000CB82 4D4E4E4E4E4E4D4D4D-
  1153 0000CB8B 4D4D4D4D4D4D4D4D4D-
  1153 0000CB94 4D4D4D4D4D4D4D4D66-
  1153 0000CB9D 666666666666666665-
  1153 0000CBA6 65656565651D1D1D1D-
  1153 0000CBAF 1D1D1D1D1D654D3535-
  1153 0000CBB8 3535353535354E3535-
  1153 0000CBC1 3535FE4D4D4D4D4D4D-
  1153 0000CBCA 4D4D4D4D4D4D664D4D-
  1153 0000CBD3 666666666565656565-
  1153 0000CBDC 65651E1E1E1D651E1E-
  1153 0000CBE5 1E1E1D656565651D65-
  1153 0000CBEE 656565666665656666-
  1153 0000CBF7 666666666665656565-
  1153 0000CC00 65666666664D4D4D4D-
  1153 0000CC09 4E66666666664D4D4D-
  1153 0000CC12 4E4E4D4D4D4E4D4E4D-
  1153 0000CC1B 4D4E4E4E4E4E4E4D4E-
  1153 0000CC24 4E4E4E4E4E4E4D4E4E-
  1153 0000CC2D 4E4E4E4E4E4E4E4E4E-
  1153 0000CC36 4E4D4D4D4D4D4D4D66-
  1153 0000CC3F 6666664D6666666566-
  1153 0000CC48 6565651D1D65651D65-
  1153 0000CC51 1D1D1D65654D4D3535-
  1153 0000CC5A 353535353535353535-
  1153 0000CC63 4DFE4D4D4D4D4D4D4D-
  1153 0000CC6C 4D4D4D4D4D664D4D66-
  1153 0000CC75 666666666565656565-
  1153 0000CC7E 1D1E1E1E65651D1E1E-
  1153 0000CC87 1E1D65656565656565-
  1153 0000CC90 656566666665666666-
  1153 0000CC99 656666656565656565-
  1153 0000CCA2 666666664D4D4D4D4E-
  1153 0000CCAB 6666666666664D4D4E-
  1153 0000CCB4 4E4E4D4E4E4D4E4E4E-
  1153 0000CCBD 4E4E4E4E4E4E4E4E4E-
  1153 0000CCC6 4E4D4E4E4E4E4E4E4E-
  1153 0000CCCF 4E4E4E4E4D4E4E4E4E-
  1153 0000CCD8 4D4D4D4D4D4D4D4D4D-
  1153 0000CCE1 666666666666666666-
  1153 0000CCEA 65651D1D1D1D1D1D1D-
  1153 0000CCF3 651D65654D35353535-
  1153 0000CCFC 35353535353535354D-
  1153 0000CD05 FE4D4E4E4D4D4D4D4D-
  1153 0000CD0E 4D4D4D4D4D4E666666-
  1153 0000CD17 66666665656565651D-
  1153 0000CD20 1E1E1E1D65651D1E1E-
  1153 0000CD29 1D6565656565656565-
  1153 0000CD32 656666666666666665-
  1153 0000CD3B 666665656565656666-
  1153 0000CD44 6665664D4D4D4D6666-
  1153 0000CD4D 66666666664D4D4D4E-
  1153 0000CD56 4D4D4D4D4D4D4D4D4E-
  1153 0000CD5F 4E4E4E4E4E4E4E4E4E-
  1153 0000CD68 4D4D4D4E4E4E4E4E4E-
  1153 0000CD71 4E4E4E4E4E4E4E4E4D-
  1153 0000CD7A 4D4D4D4D4D4D4D4D66-
  1153 0000CD83 666666666666666666-
  1153 0000CD8C 65651D1D651D656565-
  1153 0000CD95 6565654D3535353535-
  1153 0000CD9E 353535353535354DFE-
  1153 0000CDA7 4D4E4E4D4D4D4D4D4D-
  1153 0000CDB0 4D4D4E4E4E4E666666-
  1153 0000CDB9 666666656565656565-
  1153 0000CDC2 1D1D6565651D1E651D-
  1153 0000CDCB 656565656565656665-
  1153 0000CDD4 666666666666666566-
  1153 0000CDDD 666666656565666666-
  1153 0000CDE6 65664D4D4E66666666-
  1153 0000CDEF 666666664D4D4D4E4D-
  1153 0000CDF8 4E4D4D4E4D4D4E4D4E-
  1153 0000CE01 4E4E4E4E4D4E4E4E4D-
  1153 0000CE0A 4D4D4E4E4E4E4E4E4E-
  1153 0000CE13 4E4E4E4E4E4E4E4E4E-
  1153 0000CE1C 4D4D4D4D4D4D4D4E66-
  1153 0000CE25 4E664D4D6666666666-
  1153 0000CE2E 656565656565666665-
  1153 0000CE37 664D4D353535353535-
  1153 0000CE40 3535353535354EFE4E-
  1153 0000CE49 4D4E4D4D4D4D4D4D4D-
  1153 0000CE52 4D4E4E4E4E4D4D4D66-
  1153 0000CE5B 666666656565656565-
  1153 0000CE64 656565651D1D656565-
  1153 0000CE6D 656565656565656665-
  1153 0000CE76 656566666666666666-
  1153 0000CE7F 66666565666666664D-
  1153 0000CE88 4D6666666666666666-
  1153 0000CE91 666666664D4D4E4E4E-
  1153 0000CE9A 4D4D4E4E4E4E4E4E4E-
  1153 0000CEA3 4E4E4E4D4E4E4E4D4E-
  1153 0000CEAC 4D4E4E4E4E4E4E4E4E-
  1153 0000CEB5 4E4E4E4E4E4E4E4E4E-
  1153 0000CEBE 4D4D4D4D4D4D4E4E4E-
  1153 0000CEC7 4E4D4D4D6666666666-
  1153 0000CED0 656566666666664D4D-
  1153 0000CED9 4D3535353535353535-
  1153 0000CEE2 35353535354EFE354E-
  1153 0000CEEB 4D4E4D4D4D4D4D4D4D-
  1153 0000CEF4 4D4D4D4D4D4D4D4D66-
  1153 0000CEFD 666666656565656565-
  1153 0000CF06 656565651D65651D65-
  1153 0000CF0F 656565656565656566-
  1153 0000CF18 666666666566666565-
  1153 0000CF21 666665666666664D4D-
  1153 0000CF2A 6666664E6666666666-
  1153 0000CF33 6666664D4E4E4D4D4D-
  1153 0000CF3C 4D4E4E4E4E4E4E4E4E-
  1153 0000CF45 4E4E4E4E4E4E4E4E4E-
  1153 0000CF4E 4E4E4E4E4E4E4E4E4E-
  1153 0000CF57 4E4E4E4E4E4E4E4E4E-
  1153 0000CF60 4E4E4E4E4E4E4D4D4D-
  1153 0000CF69 4D4D4D4D6666666666-
  1153 0000CF72 4D4D4D4D4D4D4D3535-
  1153 0000CF7B 353535353535353535-
  1153 0000CF84 3535353535FE35354D-
  1153 0000CF8D 4D4D4D4D4D4E4D4E4D-
  1153 0000CF96 4E4E4D4D4D4D4D4D4D-
  1153 0000CF9F 4D4D4D666665656566-
  1153 0000CFA8 4D6565656565656565-
  1153 0000CFB1 656565656565656566-
  1153 0000CFBA 666665656666656666-
  1153 0000CFC3 66666666664D4D4D66-
  1153 0000CFCC 664E4E4D4D4E4E4E4E-
  1153 0000CFD5 4E4D4E4E4E4E4E4E4E-
  1153 0000CFDE 4E4E4E4E4E4E4E4E4E-
  1153 0000CFE7 4E4E4E4E4E4E4E4E4E-
  1153 0000CFF0 4E4E4E4E4D4E4E4E4E-
  1153 0000CFF9 4E4E4E4E4E4E4E4E4E-
  1153 0000D002 4E4E4E4E4E4D4D4D4D-
  1153 0000D00B 4D4D4D4D4D4D4D4D4D-
  1153 0000D014 4D4D4D4D4D4D353535-
  1153 0000D01D 35353535354E4D354E-
  1153 0000D026 35353535FE3535354E-
  1153 0000D02F 4E4E4D4D4D4E4E4E4E-
  1153 0000D038 4E4E4E4E4D4D4D4D4D-
  1153 0000D041 4D4D4D4D4D4D4D4D4D-
  1153 0000D04A 666665656565656565-
  1153 0000D053 656565656565656666-
  1153 0000D05C 65656666664D4D4D66-
  1153 0000D065 66664D4D6666666666-
  1153 0000D06E 4E4E4D4D4D4D4D4E4E-
  1153 0000D077 4E4E4D4D4D4D4D4D4E-
  1153 0000D080 4E4E4E4E4E4E4E4E4E-
  1153 0000D089 4E35354E4E4D4D4E4E-
  1153 0000D092 4E4E4D4D4D4E4E4E4E-
  1153 0000D09B 4E4E4E4E4E4E4E4E4E-
  1153 0000D0A4 4D4D4D4D4D4D4D4D4D-
  1153 0000D0AD 4D4D4D4D4D4D4D4D4D-
  1153 0000D0B6 4D4D4D4D4D35353535-
  1153 0000D0BF 35353535354D4D4D35-
  1153 0000D0C8 353535FE3535353535-
  1153 0000D0D1 354E4E4E4E4D4D4D4E-
  1153 0000D0DA 4E4E4E4D4D4E4E4D4D-
  1153 0000D0E3 4D4D4D4D4D4D4D4D4D-
  1153 0000D0EC 666666666665656565-
  1153 0000D0F5 656565656565656565-
  1153 0000D0FE 65664D4D4D4D4D4D4D-
  1153 0000D107 4D4D4D4D4E4E4E4D4D-
  1153 0000D110 4D4E4E4D4D4D4E4E4D-
  1153 0000D119 4D4D4D4E4D4E4E4E4E-
  1153 0000D122 4E4E4E4E4E4E4E4E35-
  1153 0000D12B 3535354E4E4D4E3535-
  1153 0000D134 354D4D4D4E4E4E4E4E-
  1153 0000D13D 4E4E4D4E4E4D353535-
  1153 0000D146 35353535353535354D-
  1153 0000D14F 4D4D4D4D4D4D4D4D4D-
  1153 0000D158 4D4D4D4D3535353535-
  1153 0000D161 353535354E4E663535-
  1153 0000D16A 3535FE353535353535-
  1153 0000D173 353535353535353535-
  1153 0000D17C 354E4E4E4E4D4D4D4D-
  1153 0000D185 4D3535354D4D4D4D4D-
  1153 0000D18E 4D4D4D4D4D4D664D4D-
  1153 0000D197 4D4D4D4D4D4D4D4D4D-
  1153 0000D1A0 4D4D4D4D3535354D4D-
  1153 0000D1A9 4D4D4D4D4D4D4D4D4D-
  1153 0000D1B2 4E4E4D4D4D4E4D4D4D-
  1153 0000D1BB 4D4D4D4D4D4D4E4E4E-
  1153 0000D1C4 4E4E4D4E4E4E4E3535-
  1153 0000D1CD 353535354D35353535-
  1153 0000D1D6 4E4E4D4D4E4E4E4D4E-
  1153 0000D1DF 353535353535353535-
  1153 0000D1E8 35353535353535354E-
  1153 0000D1F1 4E4E4D4D4D4D4D4D4D-
  1153 0000D1FA 353535353535353535-
  1153 0000D203 354E4E4E4E66353535-
  1153 0000D20C 35FE35353535353535-
  1153 0000D215 353535353535353535-
  1153 0000D21E 354E4E4E4E35353535-
  1153 0000D227 353535353535353535-
  1153 0000D230 3535354E4D4D4D4D4D-
  1153 0000D239 35354E4D4D4D4D4D4D-
  1153 0000D242 4D3535353535353535-
  1153 0000D24B 353535353535353535-
  1153 0000D254 4E4E4E4D4D4D4D4D4D-
  1153 0000D25D 4D4D4D4D4D4E354E4E-
  1153 0000D266 4E4D4D4D4D4E353535-
  1153 0000D26F 353535353535353535-
  1153 0000D278 3535354E4E4E353535-
  1153 0000D281 353535353535353535-
  1153 0000D28A 353535353535353535-
  1153 0000D293 353535353535353535-
  1153 0000D29C 353535353535353535-
  1153 0000D2A5 354D4E4E4E35353535-
  1153 0000D2AE FE3535353535353535-
  1153 0000D2B7 353535353535353535-
  1153 0000D2C0 353535353535353535-
  1153 0000D2C9 353535353535353535-
  1153 0000D2D2 353535353535353535-
  1153 0000D2DB 353535353535353535-
  1153 0000D2E4 353535353535353535-
  1153 0000D2ED 353535353535353535-
  1153 0000D2F6 354E4E4E4D4D4D4D35-
  1153 0000D2FF 35353535353535354D-
  1153 0000D308 4D4D4D4D4D4E353535-
  1153 0000D311 353535353535353535-
  1153 0000D31A 353535353535353535-
  1153 0000D323 353535353535353535-
  1153 0000D32C 353535353535353535-
  1153 0000D335 353535353535353535-
  1153 0000D33E 353535353535353535-
  1153 0000D347 4D4D4D4D35353535FE-
  1153 0000D350 353535353535353535-
  1153 0000D359 353535353535353535-
  1153 0000D362 353535353535353535-
  1153 0000D36B 353535353535353535-
  1153 0000D374 353535353535353535-
  1153 0000D37D 353535353535353535-
  1153 0000D386 354D35353535353535-
  1153 0000D38F 353535353535353535-
  1153 0000D398 353535353535353535-
  1153 0000D3A1 35353535353535354D-
  1153 0000D3AA 4D4D4D4D3535353535-
  1153 0000D3B3 353535353535353535-
  1153 0000D3BC 353535353535353535-
  1153 0000D3C5 353535353535353535-
  1153 0000D3CE 353535353535353535-
  1153 0000D3D7 353535353535353535-
  1153 0000D3E0 35353535353535354D-
  1153 0000D3E9 4D4D4D35353535FE35-
  1153 0000D3F2 353535353535353535-
  1153 0000D3FB 353535353535353535-
  1153 0000D404 353535353535353535-
  1153 0000D40D 353535353535353535-
  1153 0000D416 353535353535353535-
  1153 0000D41F 35353535353535354D-
  1153 0000D428 4D4D35353535353535-
  1153 0000D431 353535353535353535-
  1153 0000D43A 353535353535353535-
  1153 0000D443 353535353535353535-
  1153 0000D44C 353535353535353535-
  1153 0000D455 353535353535353535-
  1153 0000D45E 353535353535353535-
  1153 0000D467 353535353535353535-
  1153 0000D470 353535353535353535-
  1153 0000D479 353535353535353535-
  1153 0000D482 353535353535354D4D-
  1153 0000D48B 4D4D35353535FE3535-
  1153 0000D494 353535353535353535-
  1153 0000D49D 353535353535353535-
  1153 0000D4A6 353535353535353535-
  1153 0000D4AF 353535353535353535-
  1153 0000D4B8 353535353535353535-
  1153 0000D4C1 353535353535354D4D-
  1153 0000D4CA 4D3535353535353535-
  1153 0000D4D3 353535353535353535-
  1153 0000D4DC 353535353535353535-
  1153 0000D4E5 353535353535353535-
  1153 0000D4EE 353535353535353535-
  1153 0000D4F7 353535353535353535-
  1153 0000D500 353535353535353535-
  1153 0000D509 353535353535353535-
  1153 0000D512 353535353535353535-
  1153 0000D51B 353535353535353535-
  1153 0000D524 3535353535354E4E4D-
  1153 0000D52D 6635353535FE353535-
  1153 0000D536 353535353535353535-
  1153 0000D53F 353535353535353535-
  1153 0000D548 353535353535353535-
  1153 0000D551 353535353535353535-
  1153 0000D55A 353535353535353535-
  1153 0000D563 3535353535354D3535-
  1153 0000D56C 353535353535353535-
  1153 0000D575 353535353535353535-
  1153 0000D57E 353535353535353535-
  1153 0000D587 353535353535353535-
  1153 0000D590 353535353535353535-
  1153 0000D599 353535353535353535-
  1153 0000D5A2 353535353535353535-
  1153 0000D5AB 353535353535353535-
  1153 0000D5B4 353535353535353535-
  1153 0000D5BD 353535353535353535-
  1153 0000D5C6 35353535354E4E4D4D-
  1153 0000D5CF 35353535FE35353535-
  1153 0000D5D8 353535353535353535-
  1153 0000D5E1 353535353535353535-
  1153 0000D5EA 353535353535353535-
  1153 0000D5F3 353535353535353535-
  1153 0000D5FC 353535353535353535-
  1153 0000D605 353535354D35353535-
  1153 0000D60E 353535353535353535-
  1153 0000D617 353535353535353535-
  1153 0000D620 353535353535353535-
  1153 0000D629 353535353535353535-
  1153 0000D632 353535353535353535-
  1153 0000D63B 353535353535353535-
  1153 0000D644 353535353535353535-
  1153 0000D64D 353535353535353535-
  1153 0000D656 353535353535353535-
  1153 0000D65F 353535353535353535-
  1153 0000D668 3535353535354D4D35-
  1153 0000D671 353535FE3535353535-
  1153 0000D67A 353535353535353535-
  1153 0000D683 353535353535353535-
  1153 0000D68C 353535353535353535-
  1153 0000D695 353535353535353535-
  1153 0000D69E 353535353535353535-
  1153 0000D6A7 35354D4D3535353535-
  1153 0000D6B0 353535353535353535-
  1153 0000D6B9 353535353535353535-
  1153 0000D6C2 353535353535353535-
  1153 0000D6CB 353535353535353535-
  1153 0000D6D4 353535353535353535-
  1153 0000D6DD 353535353535353535-
  1153 0000D6E6 353535353535353535-
  1153 0000D6EF 353535353535353535-
  1153 0000D6F8 353535353535353535-
  1153 0000D701 353535353535353535-
  1153 0000D70A 353535353535353535-
  1153 0000D713 3535FE353535353535-
  1153 0000D71C 353535353535353535-
  1153 0000D725 353535353535353535-
  1153 0000D72E 353535353535353535-
  1153 0000D737 353535353535353535-
  1153 0000D740 353535353535353535-
  1153 0000D749 354D4D353535353535-
  1153 0000D752 353535353535353535-
  1153 0000D75B 353535353535353535-
  1153 0000D764 353535353535353535-
  1153 0000D76D 353535353535353535-
  1153 0000D776 353535353535353535-
  1153 0000D77F 353535353535353535-
  1153 0000D788 353535353535353535-
  1153 0000D791 353535353535353535-
  1153 0000D79A 353535353535353535-
  1153 0000D7A3 353535353535353535-
  1153 0000D7AC 353535353535353535-
  1153 0000D7B5 35FE35353535353535-
  1153 0000D7BE 353535353535353535-
  1153 0000D7C7 353535353535353535-
  1153 0000D7D0 353535353535353535-
  1153 0000D7D9 353535353535353535-
  1153 0000D7E2 35353535354D4D4D4D-
  1153 0000D7EB 4D4D35353535353535-
  1153 0000D7F4 353535353535353535-
  1153 0000D7FD 353535353535353535-
  1153 0000D806 353535353535353535-
  1153 0000D80F 353535353535353535-
  1153 0000D818 353535353535353535-
  1153 0000D821 353535353535353535-
  1153 0000D82A 353535353535353535-
  1153 0000D833 353535353535353535-
  1153 0000D83C 353535353535353535-
  1153 0000D845 353535353535353535-
  1153 0000D84E 353535353535353535-
  1153 0000D857 FE3535353535353535-
  1153 0000D860 353535353535353535-
  1153 0000D869 353535353535353535-
  1153 0000D872 353535353535353535-
  1153 0000D87B 353535353535353535-
  1153 0000D884 3535353535354D4D4D-
  1153 0000D88D 4D3535353535353535-
  1153 0000D896 353535353535353535-
  1153 0000D89F 353535353535353535-
  1153 0000D8A8 353535353535353535-
  1153 0000D8B1 353535353535353535-
  1153 0000D8BA 353535353535353535-
  1153 0000D8C3 353535353535353535-
  1153 0000D8CC 353535353535353535-
  1153 0000D8D5 353535353535353535-
  1153 0000D8DE 353535353535353535-
  1153 0000D8E7 353535353535353535-
  1153 0000D8F0 3535353535353535FE-
  1153 0000D8F9 353535353535353535-
  1153 0000D902 353535353535353535-
  1153 0000D90B 353535353535353535-
  1153 0000D914 353535353535353535-
  1153 0000D91D 353535353535353535-
  1153 0000D926 353535353535354D4D-
  1153 0000D92F 4E4E35353535353535-
  1153 0000D938 353535353535353535-
  1153 0000D941 353535353535353535-
  1153 0000D94A 353535353535353535-
  1153 0000D953 353535353535353535-
  1153 0000D95C 353535353535353535-
  1153 0000D965 353535353535353535-
  1153 0000D96E 353535353535353535-
  1153 0000D977 353535353535353535-
  1153 0000D980 353535353535353535-
  1153 0000D989 353535353535353535-
  1153 0000D992 35353535353535FE35-
  1153 0000D99B 4D4D4D353535353535-
  1153 0000D9A4 353535353535353535-
  1153 0000D9AD 353535353535353535-
  1153 0000D9B6 353535353535353535-
  1153 0000D9BF 353535353535353535-
  1153 0000D9C8 35353535353535354E-
  1153 0000D9D1 4D4D4D353535353535-
  1153 0000D9DA 353535353535353535-
  1153 0000D9E3 353535353535353535-
  1153 0000D9EC 353535353535353535-
  1153 0000D9F5 353535353535353535-
  1153 0000D9FE 353535353535353535-
  1153 0000DA07 353535353535353535-
  1153 0000DA10 353535353535353535-
  1153 0000DA19 353535353535353535-
  1153 0000DA22 353535353535353535-
  1153 0000DA2B 353535353535353535-
  1153 0000DA34 353535353535FE4D4D-
  1153 0000DA3D 4D4D35353535353535-
  1153 0000DA46 353535353535353535-
  1153 0000DA4F 353535353535353535-
  1153 0000DA58 353535353535353535-
  1153 0000DA61 353535353535353535-
  1153 0000DA6A 353535353535353535-
  1153 0000DA73 354D4E353535353535-
  1153 0000DA7C 353535353535353535-
  1153 0000DA85 353535353535353535-
  1153 0000DA8E 353535353535353535-
  1153 0000DA97 353535353535353535-
  1153 0000DAA0 353535353535353535-
  1153 0000DAA9 353535353535353535-
  1153 0000DAB2 353535353535353535-
  1153 0000DABB 353535353535353535-
  1153 0000DAC4 353535353535353535-
  1153 0000DACD 353535353535353535-
  1153 0000DAD6 3535353535FE354D4D-
  1153 0000DADF 353535353535353535-
  1153 0000DAE8 353535353535353535-
  1153 0000DAF1 353535353535353535-
  1153 0000DAFA 353535353535353535-
  1153 0000DB03 353535353535353535-
  1153 0000DB0C 35354D353535353535-
  1153 0000DB15 35354D4D4D4D4D4D35-
  1153 0000DB1E 353535353535353535-
  1153 0000DB27 353535353535353535-
  1153 0000DB30 353535353535353535-
  1153 0000DB39 353535353535353535-
  1153 0000DB42 353535353535353535-
  1153 0000DB4B 353535353535353535-
  1153 0000DB54 353535353535353535-
  1153 0000DB5D 353535353535353535-
  1153 0000DB66 353535353535353535-
  1153 0000DB6F 353535353535353535-
  1153 0000DB78 35353535FE354D3535-
  1153 0000DB81 353535354D4D353535-
  1153 0000DB8A 353535353535353535-
  1153 0000DB93 353535353535353535-
  1153 0000DB9C 353535353535353535-
  1153 0000DBA5 353535353535353535-
  1153 0000DBAE 354D35353535353535-
  1153 0000DBB7 354D4D4D4D4D4D4D4D-
  1153 0000DBC0 4D3535353535353535-
  1153 0000DBC9 353535353535353535-
  1153 0000DBD2 353535353535353535-
  1153 0000DBDB 353535353535353535-
  1153 0000DBE4 353535353535353535-
  1153 0000DBED 353535353535353535-
  1153 0000DBF6 353535353535353535-
  1153 0000DBFF 353535353535353535-
  1153 0000DC08 353535353535353535-
  1153 0000DC11 353535353535353535-
  1153 0000DC1A 353535FE354D35354D-
  1153 0000DC23 4D354D4D4D4D4D4D35-
  1153 0000DC2C 353535353535353535-
  1153 0000DC35 353535353535353535-
  1153 0000DC3E 353535353535353535-
  1153 0000DC47 353535353535353535-
  1153 0000DC50 353535353535353535-
  1153 0000DC59 4D4D4D4D4D4D4D4D4D-
  1153 0000DC62 354D35353535353535-
  1153 0000DC6B 353535353535353535-
  1153 0000DC74 353535353535353535-
  1153 0000DC7D 353535353535353535-
  1153 0000DC86 353535353535353535-
  1153 0000DC8F 353535353535353535-
  1153 0000DC98 353535353535353535-
  1153 0000DCA1 353535353535353535-
  1153 0000DCAA 353535353535353535-
  1153 0000DCB3 353535353535353535-
  1153 0000DCBC 3535FE             
  1154 0000DCBF BC25                    skysize:dw 9660
  1155                                  
  1156 0000DCC1 FFFFFFFFFFFFFFFFFF-     sun: db 255,255,255,255,255,255,255,255,255,255,255,255,255,255,255,255,255,255,255,255,255,255,255,255,254,255,255,255,255,255,255,255,255,255,255,255,44,255,255,255,255,255,255,255,255,255,255,255,255,254,255,255,255,255,255,255,44,255,255,255,255,44,44,255,255,255,255,44,255,255,255,255,255,255,254,255,255,255,255,255,255,44,44,255,255,255,44,44,255,255,255,44,44,255,255,255,255,255,255,254,255,255,255,255,255,255,255,44,44,255,255,44,44,255,255,44,44,44,255,255,255,255,255,255,254,255,255,255,255,255,255,255,44,44,255,255,255,255,255,255,44,44,44,255,255,255,255,255,255,254,255,255,44,44,255,255,255,255,255,255,44,44,44,44,44,255,255,255,255,255,255,44,255,255,254,255,255,255,44,44,44,255,255,44,44,44,44,44,44,44,44,67,255,44,44,44,44,255,255,254,255,255,255,68,44,44,255,44,44,44,44,44,44,44,44,44,44,255,44,44,44,255,255,255,254,255,255,255,255,44,255,255,44,44,44,44,44,44,44,44,44,44,65,255,45,255,255,255,255,254,255,255,255,255,255,255,44,44,44,44,44,44,44,44,44,44,44,43,255,255,255,255,255,255,254,...
  1156 0000DCCA FFFFFFFFFFFFFFFFFF-
  1156 0000DCD3 FFFFFFFFFFFFFEFFFF-
  1156 0000DCDC FFFFFFFFFFFFFFFFFF-
  1156 0000DCE5 2CFFFFFFFFFFFFFFFF-
  1156 0000DCEE FFFFFFFFFEFFFFFFFF-
  1156 0000DCF7 FFFF2CFFFFFFFF2C2C-
  1156 0000DD00 FFFFFFFF2CFFFFFFFF-
  1156 0000DD09 FFFFFEFFFFFFFFFFFF-
  1156 0000DD12 2C2CFFFFFF2C2CFFFF-
  1156 0000DD1B FF2C2CFFFFFFFFFFFF-
  1156 0000DD24 FEFFFFFFFFFFFFFF2C-
  1156 0000DD2D 2CFFFF2C2CFFFF2C2C-
  1156 0000DD36 2CFFFFFFFFFFFFFEFF-
  1156 0000DD3F FFFFFFFFFFFF2C2CFF-
  1156 0000DD48 FFFFFFFFFF2C2C2CFF-
  1156 0000DD51 FFFFFFFFFFFEFFFF2C-
  1156 0000DD5A 2CFFFFFFFFFFFF2C2C-
  1156 0000DD63 2C2C2CFFFFFFFFFFFF-
  1156 0000DD6C 2CFFFFFEFFFFFF2C2C-
  1156 0000DD75 2CFFFF2C2C2C2C2C2C-
  1156 0000DD7E 2C2C43FF2C2C2C2CFF-
  1156 0000DD87 FFFEFFFFFF442C2CFF-
  1156 0000DD90 2C2C2C2C2C2C2C2C2C-
  1156 0000DD99 2CFF2C2C2CFFFFFFFE-
  1156 0000DDA2 FFFFFFFF2CFFFF2C2C-
  1156 0000DDAB 2C2C2C2C2C2C2C2C41-
  1156 0000DDB4 FF2DFFFFFFFFFEFFFF-
  1156 0000DDBD FFFFFFFF2C2C2C2C2C-
  1156 0000DDC6 2C2C2C2C2C2C2BFFFF-
  1156 0000DDCF FFFFFFFFFEFFFF2C2C-
  1156 0000DDD8 2CFF2C2C2C2C2C2C2C-
  1156 0000DDE1 2C2C2C2C2BFFFF2C2C-
  1156 0000DDEA 2CFFFEFF2C2C2C2CFF-
  1156 0000DDF3 2C2C2C2C2C2C2C2C2C-
  1156 0000DDFC 2C2C2BFFFF2C2C2CFF-
  1156 0000DE05 FEFFFFFF2CFFFF2C2C-
  1156 0000DE0E 2C2C2C2C2C2C2C2C2C-
  1156 0000DE17 2BFFFF2C2CFFFFFEFF-
  1156 0000DE20 FFFFFFFFFFFF2C2C2C-
  1156 0000DE29 2C2C2C2C2C2C2C41FF-
  1156 0000DE32 FFFFFFFFFFFEFFFFFF-
  1156 0000DE3B FF2CFFFF2C2C2C2C2C-
  1156 0000DE44 2C2C2C2C2BFFFF2CFF-
  1156 0000DE4D FFFFFFFEFFFFFF2C2C-
  1156 0000DE56 2CFF442C2C2C2C2C2C-
  1156 0000DE5F 2C2B41FF2C2C2CFFFF-
  1156 0000DE68 FFFEFFFF2C2C2C2CFF-
  1156 0000DE71 FF432C2C2C2C2C2B41-
  1156 0000DE7A FFFF2C2C2C2CFFFFFE-
  1156 0000DE83 FFFF2CFFFFFFFFFFFF-
  1156 0000DE8C FF2B2B2B2B41FFFFFF-
  1156 0000DE95 FFFFFF2CFFFFFEFFFF-
  1156 0000DE9E FFFFFFFFFF2C2CFFFF-
  1156 0000DEA7 FFFFFFFF2C2C2CFFFF-
  1156 0000DEB0 FFFFFFFFFEFFFFFFFF-
  1156 0000DEB9 FFFFFF2C2CFFFF2C2C-
  1156 0000DEC2 2CFF2C2CFFFFFFFFFF-
  1156 0000DECB FFFFFEFFFFFFFFFFFF-
  1156 0000DED4 2C2CFFFFFF2C2C2CFF-
  1156 0000DEDD FF2C2CFFFFFFFFFFFF-
  1156 0000DEE6 FEFFFFFFFFFFFF2CFF-
  1156 0000DEEF FFFFFF2C2CFFFFFFFF-
  1156 0000DEF8 2CFFFFFFFFFFFFFEFF-
  1156 0000DF01 FFFFFFFFFFFFFFFFFF-
  1156 0000DF0A FF2C2CFFFFFFFFFFFF-
  1156 0000DF13 FFFFFFFFFFFE       
  1157 0000DF19 5802                    sunsize:dw 600
  1158                                  
  1159 0000DF1B FFFFFFFFFFFFFFFFFF-     car: db 255,255,255,255,255,255,255,255,255,255,255,255,255,255,255,255,255,255,255,255,255,255,255,255,255,255,255,255,255,255,255,255,255,255,255,255,255,255,255,255,255,255,255,255,255,255,255,255,23,90,163,255,255,255,255,255,255,255,255,255,255,255,255,255,255,255,255,255,255,255,255,255,255,255,255,255,255,255,255,255,255,255,255,255,255,255,255,255,254,255,255,255,255,255,255,255,255,255,255,255,255,255,255,255,255,255,255,255,255,255,255,255,255,255,255,255,255,255,255,255,255,255,255,255,255,255,255,255,255,255,255,255,255,255,255,255,162,65,65,6,162,255,255,255,255,255,255,255,255,255,255,255,255,255,255,255,255,255,255,255,255,255,255,255,255,255,255,255,255,255,255,255,255,255,255,255,255,254,255,255,255,255,255,255,255,255,255,255,255,255,255,255,255,255,255,255,255,255,255,255,255,255,255,255,255,255,255,255,255,255,255,255,255,255,255,255,255,255,255,255,255,255,255,255,255,90,66,66,6,65,255,255,255,255,255,255,255,255,255,255,255,255,255,255,255,255,255,255,255,255,255,255,255,255,255,255,...
  1159 0000DF24 FFFFFFFFFFFFFFFFFF-
  1159 0000DF2D FFFFFFFFFFFFFFFFFF-
  1159 0000DF36 FFFFFFFFFFFFFFFFFF-
  1159 0000DF3F FFFFFFFFFFFFFFFFFF-
  1159 0000DF48 FFFFFF175AA3FFFFFF-
  1159 0000DF51 FFFFFFFFFFFFFFFFFF-
  1159 0000DF5A FFFFFFFFFFFFFFFFFF-
  1159 0000DF63 FFFFFFFFFFFFFFFFFF-
  1159 0000DF6C FFFFFFFFFFFFFFFEFF-
  1159 0000DF75 FFFFFFFFFFFFFFFFFF-
  1159 0000DF7E FFFFFFFFFFFFFFFFFF-
  1159 0000DF87 FFFFFFFFFFFFFFFFFF-
  1159 0000DF90 FFFFFFFFFFFFFFFFFF-
  1159 0000DF99 FFFFFFFFFFFFFFFFFF-
  1159 0000DFA2 FFA2414106A2FFFFFF-
  1159 0000DFAB FFFFFFFFFFFFFFFFFF-
  1159 0000DFB4 FFFFFFFFFFFFFFFFFF-
  1159 0000DFBD FFFFFFFFFFFFFFFFFF-
  1159 0000DFC6 FFFFFFFFFFFFFEFFFF-
  1159 0000DFCF FFFFFFFFFFFFFFFFFF-
  1159 0000DFD8 FFFFFFFFFFFFFFFFFF-
  1159 0000DFE1 FFFFFFFFFFFFFFFFFF-
  1159 0000DFEA FFFFFFFFFFFFFFFFFF-
  1159 0000DFF3 FFFFFFFFFFFFFFFFFF-
  1159 0000DFFC 5A42420641FFFFFFFF-
  1159 0000E005 FFFFFFFFFFFFFFFFFF-
  1159 0000E00E FFFFFFFFFFFFFFFFFF-
  1159 0000E017 FFFFFFFFFFFFFFFFFF-
  1159 0000E020 FFFFFFFFFFFEFFFFFF-
  1159 0000E029 FFFFFFFFFFFFFFFFFF-
  1159 0000E032 FFFFFFFFFFFFFFFFFF-
  1159 0000E03B FFFFFFFFFFFFFFFFFF-
  1159 0000E044 FFFFFFFFFFFFFFFFFF-
  1159 0000E04D FFFFFFFFFFFFFFFF5A-
  1159 0000E056 5A5B5A59FFFFFFFFFF-
  1159 0000E05F FFFFFFFFFFFFFFFFFF-
  1159 0000E068 FFFFFFFFFFFFFFFFFF-
  1159 0000E071 FFFFFFFFFFFFFFFFFF-
  1159 0000E07A FFFFFFFFFEFFFFFFFF-
  1159 0000E083 FFFFFFFFFFFFFFFFFF-
  1159 0000E08C FFFFFFFFFFFFFFFFFF-
  1159 0000E095 FFFFFFFFFFFFFFFFFF-
  1159 0000E09E FFFFFFFFFFFFFFFFFF-
  1159 0000E0A7 FFFFFFFFFFFFFFA28A-
  1159 0000E0B0 5A1EFFFFFFFFFFFFFF-
  1159 0000E0B9 FFFFFFFFFFFFFFFFFF-
  1159 0000E0C2 FFFFFFFFFFFFFFFFFF-
  1159 0000E0CB FFFFFFFFFFFFFFFFFF-
  1159 0000E0D4 FFFFFFFEFFFFFFFFFF-
  1159 0000E0DD FFFFFFFFFFFFFFFFFF-
  1159 0000E0E6 FFFFFFFFFFFFFFFFFF-
  1159 0000E0EF FFFFFFFFFFFFFFFFFF-
  1159 0000E0F8 FFFFFFFFFFFFFFFFFF-
  1159 0000E101 FFFFFFFF15181A085A-
  1159 0000E10A FFFFFFFFFFFFFFFFFF-
  1159 0000E113 FFFFFFFFFFFFFFFFFF-
  1159 0000E11C FFFFFFFFFFFFFFFFFF-
  1159 0000E125 FFFFFFFFFFFFFFFFFF-
  1159 0000E12E FFFFFEFFFFFFFFFFFF-
  1159 0000E137 FFFFFFFFFFFFFFFFFF-
  1159 0000E140 FFFFFFFFFFFFFFFFFF-
  1159 0000E149 FFFFFFFFFFFFFFFFFF-
  1159 0000E152 FFFFFFFFFFFFFFFFFF-
  1159 0000E15B FFFFFF1C1D1E1D5A5A-
  1159 0000E164 A2FFFFFFFFFFFFFFFF-
  1159 0000E16D FFFFFFFFFFFFFFFFFF-
  1159 0000E176 FFFFFFFFFFFFFFFFFF-
  1159 0000E17F FFFFFFFFFFFFFFFFFF-
  1159 0000E188 FFFEFFFFFFFFFFFFFF-
  1159 0000E191 FFFFFFFFFFFFFFFFFF-
  1159 0000E19A FFFFFFFFFFFFFFFFFF-
  1159 0000E1A3 FFFFFFFFFFFFFFFFFF-
  1159 0000E1AC FFFFFFFFFFFFFFFFFF-
  1159 0000E1B5 FF5A5A425A5A425AFF-
  1159 0000E1BE FFFFFFFFFFFFFFFFFF-
  1159 0000E1C7 FFFFFFFFFFFFFFFFFF-
  1159 0000E1D0 FFFFFFFFFFFFFFFFFF-
  1159 0000E1D9 FFFFFFFFFFFFFFFFFF-
  1159 0000E1E2 FEFFFFFFFFFFFFFFFF-
  1159 0000E1EB FFFFFFFFFFFFFFFFFF-
  1159 0000E1F4 FFFFFFFFFFFFFFFFFF-
  1159 0000E1FD FFFFFFFFFFFFFFFFFF-
  1159 0000E206 FFFFFF7FB21CFFFFFF-
  1159 0000E20F FF1C5A1E594259FFFF-
  1159 0000E218 FFFFFF8181FFFFFFFF-
  1159 0000E221 FFFFFFFFFFFFFFFFFF-
  1159 0000E22A FFFFFFFFFFFFFFFFFF-
  1159 0000E233 FFFFFFFFFFFFFFFFFE-
  1159 0000E23C FFFFFFFFFFFFFFFFFF-
  1159 0000E245 FFFFFFFFFFFFFFFFFF-
  1159 0000E24E FFFFFFFFFFFFFFFFFF-
  1159 0000E257 FFFFFFFFFFFFFFFFFF-
  1159 0000E260 81B1B11AFFFFFFFFFF-
  1159 0000E269 5A5A5B5A5A5A8A1BFF-
  1159 0000E272 FF81B1B1B1B17F7F81-
  1159 0000E27B 829AFFFFFFFFFFFFFF-
  1159 0000E284 FFFFFFFFFFFFFFFFFF-
  1159 0000E28D FFFFFFFFFFFFFFFEFF-
  1159 0000E296 FFFFFFFFFFFFFFFFFF-
  1159 0000E29F FFFFFFFFFFFFFFFFFF-
  1159 0000E2A8 FFFFFFFFFFFFFFFFFF-
  1159 0000E2B1 FFFFFFFFFFFFFF81B0-
  1159 0000E2BA 99FFFFFFFFFFFFFF5B-
  1159 0000E2C3 8B8B1C1E1DEA070F1B-
  1159 0000E2CC 8169B1B1B2B2B1B1B1-
  1159 0000E2D5 B1696A7F81819B07FF-
  1159 0000E2DE FFFFFFFFFFFFFFFFFF-
  1159 0000E2E7 FFFFFFFFFFFFFEFFFF-
  1159 0000E2F0 FFFFFFFFFFFFFFFFFF-
  1159 0000E2F9 FFFFFFFFFFFFFFFFFF-
  1159 0000E302 FFFFFFFFFFFFFFFFFF-
  1159 0000E30B FFFFFFFF9B818199FF-
  1159 0000E314 FFFFFFFFFFFFFFFFFF-
  1159 0000E31D FFFFFF1E121A0F1981-
  1159 0000E326 B1B1B1B1B1B2B1B1B1-
  1159 0000E32F B2B1B1B2B16A6A7F81-
  1159 0000E338 FFFFFFFFFFFFFFFFFF-
  1159 0000E341 FFFFFFFFFFFEFFFFFF-
  1159 0000E34A FFFFFFFFFFFFFFFFFF-
  1159 0000E353 FFFFFFFFFFFFFFFFFF-
  1159 0000E35C FFFFFFFFFFFFFFFFFF-
  1159 0000E365 FFFF817F8199FFFFFF-
  1159 0000E36E FFFFFFFFFFFFFFFFFF-
  1159 0000E377 FF0F1D111A0F1981B1-
  1159 0000E380 B1B1B27F7F7FB2B27F-
  1159 0000E389 7FB2B27F7F7F6A6A6A-
  1159 0000E392 7F829AFFFFFFFFFFFF-
  1159 0000E39B FFFFFFFFFEFFFFFFFF-
  1159 0000E3A4 FFFFFFFFFFFFFFFFFF-
  1159 0000E3AD FFFFFFFFFFFFFFFFFF-
  1159 0000E3B6 FFFFFFFFFFFFFFFFFF-
  1159 0000E3BF 816A81C9FFFFFFFFFF-
  1159 0000E3C8 FFFFFFFFFFFFFFFFFF-
  1159 0000E3D1 0F07FF1B0F18B2B16A-
  1159 0000E3DA 7F7F7F81817F7F7F7F-
  1159 0000E3E3 7F7F7F818181818181-
  1159 0000E3EC 817F7F81819BFFFFFF-
  1159 0000E3F5 FFFFFFFEFFFFFFFFFF-
  1159 0000E3FE FFFFFFFFFFFFFFFF1B-
  1159 0000E407 9B9A9A999AFFFFFFFF-
  1159 0000E410 FFFFFFFFFFFFFFB169-
  1159 0000E419 81C9E1FFFFFFFFFFFF-
  1159 0000E422 FFFFFFFFFFFFFF1A9A-
  1159 0000E42B 99C9071E816A7F7F7F-
  1159 0000E434 B1B1B1B1B1B1B1B1B1-
  1159 0000E43D B2B1B1B1B1B1B1B1B2-
  1159 0000E446 B1B1B2B1B1B2696AB2-
  1159 0000E44F FFFFFEFFFFFFFFFFFF-
  1159 0000E458 FFFF82B1B2B1B2B1B2-
  1159 0000E461 6A6A7F8167FFFFFFFF-
  1159 0000E46A FFFFFFFFFF7F7F7F7F-
  1159 0000E473 818181B28181817F7F-
  1159 0000E47C B2B2B27F7F7F7F7F6A-
  1159 0000E485 7F7F817FB2B1B1B1B1-
  1159 0000E48E B1B2B1B1B1B1B1B1B1-
  1159 0000E497 B1B1B1B1B1B2B2B2B1-
  1159 0000E4A0 B2B1B1B1696A6A69FF-
  1159 0000E4A9 FFFEFFFFFFFFFFFF1E-
  1159 0000E4B2 5182818182829B9B9B-
  1159 0000E4BB 9B9B9B9A9A82819981-
  1159 0000E4C4 81817F7F6AB26A6A69-
  1159 0000E4CD 696AB1B1B1B1B2B1B2-
  1159 0000E4D6 B2B2B1B1B1B1B2B1B1-
  1159 0000E4DF B1B0B1B1B1B1B1B1B1-
  1159 0000E4E8 B2B1B1B1B2B1B2B2B1-
  1159 0000E4F1 B1B1B2B1B2B2B1B1B1-
  1159 0000E4FA B1B1B1B1B1B26AFFFF-
  1159 0000E503 FEFFFF1C671A199A82-
  1159 0000E50C 81818181808180B1B1-
  1159 0000E515 B1B1B1B1B1B1B1B0B1-
  1159 0000E51E B1B1B1B1B2B2B2B2B2-
  1159 0000E527 B2B2B2B1B1B1B2B2B2-
  1159 0000E530 B2B2B1B1B1B2B2B2B1-
  1159 0000E539 B1B1B1B1B2B1B1B2B2-
  1159 0000E542 B1B1B1B1B1B1B1B1B1-
  1159 0000E54B 69B2B2B1B1B1B1B1B1-
  1159 0000E554 B1B1B1B1B1B1FFFFFE-
  1159 0000E55D 1C9A81B1B1B1B1B1B2-
  1159 0000E566 B1B1B1B1B1B16969B2-
  1159 0000E56F B2B1B2B2B2B2B1B2B2-
  1159 0000E578 B1B1B169B2B2B1B2B2-
  1159 0000E581 B2B2B2B2B2B2B2B1B1-
  1159 0000E58A B1B2B2B2B1B2B2B1B1-
  1159 0000E593 B2B1B2B2B269B16A6A-
  1159 0000E59C B2C9E6EAD2121212CA-
  1159 0000E5A5 B169B1B1B1B1B1B1B1-
  1159 0000E5AE B1B1B1B1FFFFFFFE81-
  1159 0000E5B7 7FB1B1B1B17FB1B16A-
  1159 0000E5C0 6AB2B269696A6A6AB2-
  1159 0000E5C9 B1B2B2B1B1B1B1B1B1-
  1159 0000E5D2 B2B2B2B2B1B1B2B2B2-
  1159 0000E5DB B2B2B2B2B2B2B2B26A-
  1159 0000E5E4 6A6AB2B2B2B1B2B26A-
  1159 0000E5ED B27F6AB169B18181EA-
  1159 0000E5F6 D3121111111111D3EB-
  1159 0000E5FF C9B1B1B16AB16A6AB1-
  1159 0000E608 B1B1AFFFFFFFFE1B69-
  1159 0000E611 B2B2B1B1B1B18281B1-
  1159 0000E61A B1C7C8C8C7B1B2B1B2-
  1159 0000E623 B2B1B2B1B2B1B2B2B2-
  1159 0000E62C B1B1B2B2B2B1B1B2B1-
  1159 0000E635 B1B2B1B1B2B1696A6A-
  1159 0000E63E B2B1B26AB2B26A6A6A-
  1159 0000E647 6A7FB1B1819AD3D311-
  1159 0000E650 12D2D289D3D211D3D5-
  1159 0000E659 15B16A6A6A6A6A6A6A-
  1159 0000E662 B1FFFFFFFFFEFF6A69-
  1159 0000E66B B1B2B2B1819BB1C8EA-
  1159 0000E674 8A8A8AD211C8C7B16A-
  1159 0000E67D B2B2B1B1B1B1B2B1B2-
  1159 0000E686 B2B1B2B2B1B2B1B1B2-
  1159 0000E68F B2B1B1B1B26A6AB1B1-
  1159 0000E698 B26A696A6A6A6A6A6A-
  1159 0000E6A1 6AB26ACAECEB121389-
  1159 0000E6AA 8989D2D2898ACFD55B-
  1159 0000E6B3 506A6A6A6A69696AFF-
  1159 0000E6BC FFFFFFFFFEFF99B27F-
  1159 0000E6C5 6A7F7FB2C8128A8AD2-
  1159 0000E6CE D2D28A8AD1FFC86A6A-
  1159 0000E6D7 B2B2B2B2B1B2B1B2B2-
  1159 0000E6E0 B2B2B2B2B2B2B1B26A-
  1159 0000E6E9 6AB269B1B2B2B2B2B1-
  1159 0000E6F2 B26A6AB26A696A6A69-
  1159 0000E6FB 6A6A15D412E78AD216-
  1159 0000E704 191A1A15D28A121A1C-
  1159 0000E70D 816A6AB26A69B1FFFF-
  1159 0000E716 FFFFFFFEFFFF1D99B2-
  1159 0000E71F 6A7FB1118A8A15191B-
  1159 0000E728 1814E88912FFC86A6A-
  1159 0000E731 B2B2B2B1B1B2B1B269-
  1159 0000E73A B2B26A6A6A6A6A6A6A-
  1159 0000E743 696AB2B1B2B2B2B2B2-
  1159 0000E74C B2B2B2B1B2B1B269B2-
  1159 0000E755 B1151512898A171819-
  1159 0000E75E 0F1A1AAFD28913EDE1-
  1159 0000E767 B2B1B1696981FFFFFF-
  1159 0000E770 FFFFFEFFFFFFFFB17F-
  1159 0000E779 7FC8D28A15191E1E14-
  1159 0000E782 1716D38AFF11C769B2-
  1159 0000E78B B1B2B2B1B2B2B1B2B2-
  1159 0000E794 6A6A69696A6A696AB2-
  1159 0000E79D 6A69696AB2B26A696A-
  1159 0000E7A6 6A696969B2B2B26A81-
  1159 0000E7AF EB12EA8AEB1E17ED1E-
  1159 0000E7B8 E0ED1CE38AD31A079A-
  1159 0000E7C1 8081FFFFFFFFFFFFFF-
  1159 0000E7CA FFFEFFFFFFFFCA69C7-
  1159 0000E7D3 118BEA1BEA1819131D-
  1159 0000E7DC 07138AD10818B1B1B2-
  1159 0000E7E5 B2B16A6A6A6A6AB26A-
  1159 0000E7EE 6A69696A6A6A6A696A-
  1159 0000E7F7 6A6A6A6A6A6A6A6A69-
  1159 0000E800 6A6A6969B2B16A9918-
  1159 0000E809 E2D28AA31E1E071C19-
  1159 0000E812 1D1EAF89D4FFFFFFFF-
  1159 0000E81B FFFFFFFFFFFFFFFFFF-
  1159 0000E824 FEFFFFFFFFFFFF9919-
  1159 0000E82D 8A081E1D18151B0719-
  1159 0000E836 158AD1171D18B2B1B1-
  1159 0000E83F B16A7FB1B2B26A6A6A-
  1159 0000E848 696969B1696A696A7F-
  1159 0000E851 B26A6AB2B2B2B1B1B1-
  1159 0000E85A B18080B2B181191B15-
  1159 0000E863 EA8AAAE2EB071C1E0F-
  1159 0000E86C 1EAF898AFFFFFFFFFF-
  1159 0000E875 FFFFFFFFFFFFFFFFFE-
  1159 0000E87E FFFFFFFFFFFFFFFF8A-
  1159 0000E887 171B171A1D07121516-
  1159 0000E890 8AE908071BC9C7C998-
  1159 0000E899 E298AF999A81B1B27F-
  1159 0000E8A2 FFFFFFFFFFFFFFFFFF-
  1159 0000E8AB FFFFFFFFFFFFFFFFFF-
  1159 0000E8B4 FFFFFFFFFFFF1A17EA-
  1159 0000E8BD 8A0819071B181E0F1E-
  1159 0000E8C6 15898AFFFFFFFFFFFF-
  1159 0000E8CF FFFFFFFFFFFFFFFEFF-
  1159 0000E8D8 FFFFFFFFFFFFFF8AA1-
  1159 0000E8E1 19131C181B1E18168B-
  1159 0000E8EA E617071B1919FFFFFF-
  1159 0000E8F3 FFFFFFFFFFFFFFFFFF-
  1159 0000E8FC FFFFFFFFFFFFFFFFFF-
  1159 0000E905 FFFFFFFFFFFFFFFFFF-
  1159 0000E90E FFFFFFFFFFFFFF1489-
  1159 0000E917 D11A0F98D30F1E19A0-
  1159 0000E920 881AFFFFFFFFFFFFFF-
  1159 0000E929 FFFFFFFFFFFFFEFFFF-
  1159 0000E932 FFFFFFFFFFFFA38918-
  1159 0000E93B 1C1EEA151B168A8A11-
  1159 0000E944 12FFFFFFFFFFFFFFFF-
  1159 0000E94D FFFFFFFFFFFFFFFFFF-
  1159 0000E956 FFFFFFFFFFFFFFFFFF-
  1159 0000E95F FFFFFFFFFFFFFFFFFF-
  1159 0000E968 FFFFFFFFFFFFAEE889-
  1159 0000E971 CF1818191AAEE78889-
  1159 0000E97A FFFFFFFFFFFFFFFFFF-
  1159 0000E983 FFFFFFFFFFFEFFFFFF-
  1159 0000E98C FFFFFFFFFFFF8A8AA1-
  1159 0000E995 08080816A28A11E9FF-
  1159 0000E99E FFFFFFFFFFFFFFFFFF-
  1159 0000E9A7 FFFFFFFFFFFFFFFFFF-
  1159 0000E9B0 FFFFFFFFFFFFFFFFFF-
  1159 0000E9B9 FFFFFFFFFFFFFFFFFF-
  1159 0000E9C2 FFFFFFFFFFFF15D188-
  1159 0000E9CB 89EA15E6888889FFFF-
  1159 0000E9D4 FFFFFFFFFFFFFFFFFF-
  1159 0000E9DD FFFFFFFFFEFFFFFFFF-
  1159 0000E9E6 FFFFFFFFFFFFA18988-
  1159 0000E9EF 898989D2EAFFFFFFFF-
  1159 0000E9F8 FFFFFFFFFFFFFFFFFF-
  1159 0000EA01 FFFFFFFFFFFFFFFFFF-
  1159 0000EA0A FFFFFFFFFFFFFFFFFF-
  1159 0000EA13 FFFFFFFFFFFFFFFFFF-
  1159 0000EA1C FFFFFFFFFFFFAFE988-
  1159 0000EA25 88888889D31CFFFFFF-
  1159 0000EA2E FFFFFFFFFFFFFFFFFF-
  1159 0000EA37 FFFFFFFEFFFFFFFFFF-
  1159 0000EA40 FFFFFFFFFFFFFFA189-
  1159 0000EA49 A01519FFFFFFFFFFFF-
  1159 0000EA52 FFFFFFFFFFFFFFFFFF-
  1159 0000EA5B FFFFFFFFFFFFFFFFFF-
  1159 0000EA64 FFFFFFFFFFFFFFFFFF-
  1159 0000EA6D FFFFFFFFFFFFFFFFFF-
  1159 0000EA76 FFFFFFFFFFFFFF1818-
  1159 0000EA7F 1918FFFFFFFFFFFFFF-
  1159 0000EA88 FFFFFFFFFFFFFFFFFF-
  1159 0000EA91 FFFFFEFFFFFFFFFFFF-
  1159 0000EA9A FFFFFFFFFFFFFFFFFF-
  1159 0000EAA3 FFFFFFFFFFFFFFFFFF-
  1159 0000EAAC FFFFFFFFFFFFFFFFFF-
  1159 0000EAB5 FFFFFFFFFFFFFFFFFF-
  1159 0000EABE FFFFFFFFFFFFFFFFFF-
  1159 0000EAC7 FFFFFFFFFFFFFFFFFF-
  1159 0000EAD0 FFFFFFFFFFFFFFFFFF-
  1159 0000EAD9 FFFFFFFFFFFFFFFFFF-
  1159 0000EAE2 FFFFFFFFFFFFFFFFFF-
  1159 0000EAEB FFFE               
  1160 0000EAED D20B                    carsize:dw 3026
  1161                                  
  1162 0000EAEF FFFFFFFFFFFFA1A0A0-     rabbit1: db 255,255,255,255,255,255,161,160,160,25,255,255,255,255,255,255,255,255,255,255,255,255,25,161,161,158,255,255,255,255,254,255,255,255,255,255,158,91,91,91,91,137,26,255,255,255,255,255,255,255,255,155,65,91,91,91,66,133,255,255,255,254,255,255,255,255,255,156,91,90,87,88,91,137,255,255,255,255,255,255,255,25,65,90,88,88,91,255,155,255,255,255,254,255,255,255,255,255,255,135,91,88,88,88,91,134,255,255,255,255,255,255,136,91,87,88,88,91,134,255,255,255,255,254,255,255,255,255,255,255,255,255,90,89,87,157,135,255,255,28,28,255,26,135,157,88,88,91,160,255,255,255,255,255,254,255,255,255,255,255,255,255,157,89,133,160,90,15,15,15,15,15,15,15,15,29,134,157,89,155,255,255,255,255,255,254,255,255,255,255,255,255,255,255,134,91,15,15,15,15,15,15,15,15,15,15,15,15,90,181,255,255,255,255,255,255,254,255,255,255,255,255,255,255,160,92,15,15,28,28,15,15,15,15,15,15,7,29,15,15,91,134,255,255,255,255,255,254,255,255,255,255,255,255,160,91,15,15,26,180,180,26,15,15,15,15,156,180,181,29,15,91,91,134,255,255,25...
  1162 0000EAF8 19FFFFFFFFFFFFFFFF-
  1162 0000EB01 FFFFFFFF19A1A19EFF-
  1162 0000EB0A FFFFFFFEFFFFFFFFFF-
  1162 0000EB13 9E5B5B5B5B891AFFFF-
  1162 0000EB1C FFFFFFFFFFFF9B415B-
  1162 0000EB25 5B5B4285FFFFFFFEFF-
  1162 0000EB2E FFFFFFFF9C5B5A5758-
  1162 0000EB37 5B89FFFFFFFFFFFFFF-
  1162 0000EB40 19415A58585BFF9BFF-
  1162 0000EB49 FFFFFEFFFFFFFFFFFF-
  1162 0000EB52 875B5858585B86FFFF-
  1162 0000EB5B FFFFFFFF885B575858-
  1162 0000EB64 5B86FFFFFFFFFEFFFF-
  1162 0000EB6D FFFFFFFFFFFF5A5957-
  1162 0000EB76 9D87FFFF1C1CFF1A87-
  1162 0000EB7F 9D58585BA0FFFFFFFF-
  1162 0000EB88 FFFEFFFFFFFFFFFFFF-
  1162 0000EB91 9D5985A05A0F0F0F0F-
  1162 0000EB9A 0F0F0F0F1D869D599B-
  1162 0000EBA3 FFFFFFFFFFFEFFFFFF-
  1162 0000EBAC FFFFFFFFFF865B0F0F-
  1162 0000EBB5 0F0F0F0F0F0F0F0F0F-
  1162 0000EBBE 0F5AB5FFFFFFFFFFFF-
  1162 0000EBC7 FEFFFFFFFFFFFFFFA0-
  1162 0000EBD0 5C0F0F1C1C0F0F0F0F-
  1162 0000EBD9 0F0F071D0F0F5B86FF-
  1162 0000EBE2 FFFFFFFFFEFFFFFFFF-
  1162 0000EBEB FFFFA05B0F0F1AB4B4-
  1162 0000EBF4 1A0F0F0F0F9CB4B51D-
  1162 0000EBFD 0F5B5B86FFFFFFFFFE-
  1162 0000EC06 FFFFFFFF9B855A0F0F-
  1162 0000EC0F 0F9C07649C0F0F0F0F-
  1162 0000EC18 8564AF1B0F0F5B589C-
  1162 0000EC21 9BFFFFFEFFFFFFFFFF-
  1162 0000EC2A A09E851D0F0F9C1B0F-
  1162 0000EC33 1D1A1A1E1E1A1A0F0F-
  1162 0000EC3C 1C859F87FFFFFFFEFF-
  1162 0000EC45 FFFF9B83A15B0F1E0F-
  1162 0000EC4E 0F0F0F1ECBB4B4B40F-
  1162 0000EC57 0F0F0F0F1E0F5B87FF-
  1162 0000EC60 9AFFFEFFFFFFFF9D58-
  1162 0000EC69 9C1E0F0F0F0F1E0F1E-
  1162 0000EC72 9C9C0F0F1E0F0F0F0F-
  1162 0000EC7B 079D899CFFFFFEFF9C-
  1162 0000EC84 9FFFFF5B5B0F0F0F0F-
  1162 0000EC8D 0F1E9C9C9C9C9C9C1E-
  1162 0000EC96 0F0F0F0F0F5B429BFF-
  1162 0000EC9F FFFE9CFF0F0F5B5B5B-
  1162 0000ECA8 0F0F0F0F0F0F0F0F0F-
  1162 0000ECB1 0F0F0F0F0F0F0F0F0F-
  1162 0000ECBA 5B41FFFFFFFE9D5B0F-
  1162 0000ECC3 0F5B5B5B0F1D19070F-
  1162 0000ECCC 0F0F0F0F0F0F0F0F0F-
  1162 0000ECD5 071A1E0F5B89FFFFFF-
  1162 0000ECDE FEFF87FF5B07585B9D-
  1162 0000ECE7 1A5A59851E0F0F0F0F-
  1162 0000ECF0 0F0F1E86595AA19E5B-
  1162 0000ECF9 86FFFFFFFEFFFFFFFF-
  1162 0000ED02 FF9C419E5A1C9E599C-
  1162 0000ED0B 0F0F0F0F0F0F9C5A9E-
  1162 0000ED14 5AA19F89FFFFFFFFFE-
  1162 0000ED1D FFFFFFFFFFFF1A1A1A-
  1162 0000ED26 9E9D1C1C5A5A5A5A5A-
  1162 0000ED2F 5A071A859E85859CFF-
  1162 0000ED38 FFFFFFFE           
  1163 0000ED3C FFFFFFFFFFFFA1A0A0-     rabbit2: db 255,255,255,255,255,255,161,160,160,25,255,255,255,255,255,255,255,255,255,255,255,255,25,161,161,158,255,255,255,255,254,255,255,255,255,255,158,91,91,40,91,137,26,255,255,255,255,255,255,255,255,155,65,40,91,91,66,133,255,255,255,254,255,255,255,255,255,156,91,40,87,88,91,137,255,255,255,255,255,255,255,25,65,90,40,88,91,255,155,255,255,255,254,255,255,255,255,255,255,135,91,88,88,88,91,134,255,255,255,255,255,255,136,91,87,88,40,91,134,255,255,255,255,254,255,255,255,255,255,255,255,255,90,89,87,157,135,255,255,28,28,255,26,135,157,88,88,91,160,255,255,255,255,255,254,255,255,255,255,255,255,255,157,89,133,160,90,15,15,15,40,15,15,15,15,29,134,157,89,155,255,255,255,255,255,254,255,255,255,255,255,255,255,255,134,91,15,15,15,15,15,15,15,15,15,15,40,15,90,181,255,255,255,255,255,255,254,255,255,255,255,255,255,255,160,92,15,40,40,28,40,15,15,15,40,15,7,40,15,15,91,134,255,255,255,255,255,254,255,255,255,255,255,255,160,91,15,15,40,40,40,40,15,15,15,40,40,40,40,29,15,91,91,134,255,255,255,255...
  1163 0000ED45 19FFFFFFFFFFFFFFFF-
  1163 0000ED4E FFFFFFFF19A1A19EFF-
  1163 0000ED57 FFFFFFFEFFFFFFFFFF-
  1163 0000ED60 9E5B5B285B891AFFFF-
  1163 0000ED69 FFFFFFFFFFFF9B4128-
  1163 0000ED72 5B5B4285FFFFFFFEFF-
  1163 0000ED7B FFFFFFFF9C5B285758-
  1163 0000ED84 5B89FFFFFFFFFFFFFF-
  1163 0000ED8D 19415A28585BFF9BFF-
  1163 0000ED96 FFFFFEFFFFFFFFFFFF-
  1163 0000ED9F 875B5858585B86FFFF-
  1163 0000EDA8 FFFFFFFF885B575828-
  1163 0000EDB1 5B86FFFFFFFFFEFFFF-
  1163 0000EDBA FFFFFFFFFFFF5A5957-
  1163 0000EDC3 9D87FFFF1C1CFF1A87-
  1163 0000EDCC 9D58585BA0FFFFFFFF-
  1163 0000EDD5 FFFEFFFFFFFFFFFFFF-
  1163 0000EDDE 9D5985A05A0F0F0F28-
  1163 0000EDE7 0F0F0F0F1D869D599B-
  1163 0000EDF0 FFFFFFFFFFFEFFFFFF-
  1163 0000EDF9 FFFFFFFFFF865B0F0F-
  1163 0000EE02 0F0F0F0F0F0F0F0F28-
  1163 0000EE0B 0F5AB5FFFFFFFFFFFF-
  1163 0000EE14 FEFFFFFFFFFFFFFFA0-
  1163 0000EE1D 5C0F28281C280F0F0F-
  1163 0000EE26 280F07280F0F5B86FF-
  1163 0000EE2F FFFFFFFFFEFFFFFFFF-
  1163 0000EE38 FFFFA05B0F0F282828-
  1163 0000EE41 280F0F0F282828281D-
  1163 0000EE4A 0F5B5B86FFFFFFFFFE-
  1163 0000EE53 FFFFFFFF9B855A0F0F-
  1163 0000EE5C 0F9C28289C0F0F0F0F-
  1163 0000EE65 2828281B0F0F5B589C-
  1163 0000EE6E 9BFFFFFEFFFFFFFFFF-
  1163 0000EE77 A09E851D0F28281B28-
  1163 0000EE80 281A1A28281A28280F-
  1163 0000EE89 1C859F87FFFFFFFEFF-
  1163 0000EE92 FFFF9B83A15B0F1E0F-
  1163 0000EE9B 28280F1ECBB4B4B40F-
  1163 0000EEA4 0F28280F1E285B87FF-
  1163 0000EEAD 9AFFFEFFFFFFFF9D58-
  1163 0000EEB6 281E0F0F28281E0F1E-
  1163 0000EEBF 9C9C0F0F1E28280F0F-
  1163 0000EEC8 289D899CFFFFFEFF9C-
  1163 0000EED1 9FFFFF5B280F0F0F28-
  1163 0000EEDA 281E9C9C9C9C9C9C1E-
  1163 0000EEE3 28280F0F285B429BFF-
  1163 0000EEEC FFFE9CFF0F0F5B5B28-
  1163 0000EEF5 0F0F0F0F280F0F0F0F-
  1163 0000EEFE 0F0F0F0F280F0F0F28-
  1163 0000EF07 5B41FFFFFFFE9D5B0F-
  1163 0000EF10 0F5B5B280F1D19070F-
  1163 0000EF19 0F0F0F0F0F0F0F0F0F-
  1163 0000EF22 071A1E285B89FFFFFF-
  1163 0000EF2B FEFF87FF5B0758289D-
  1163 0000EF34 1A5A59281E0F0F0F0F-
  1163 0000EF3D 0F0F1E86595AA19E5B-
  1163 0000EF46 86FFFFFFFEFFFFFFFF-
  1163 0000EF4F FF9C419E5A1C9E289C-
  1163 0000EF58 0F0F0F28280F9C5A9E-
  1163 0000EF61 5AA19F89FFFFFFFFFE-
  1163 0000EF6A FFFFFFFFFFFF1A1A1A-
  1163 0000EF73 9E9D1C1C5A5A5A5A28-
  1163 0000EF7C 5A071A859E85859CFF-
  1163 0000EF85 FFFFFFFE           
  1164 0000EF89 3A02                    rabbitsize: dw 570
  1165                                  
  1166 0000EF8B 0000                    sound_index: dw 0
  1167 0000EF8D 70657272792E776176-     filename: db 'perry.wav',0
  1167 0000EF96 00                 
  1168 0000EF97 F82A                    sound_size:dw 11000
  1169 0000EF99 0000                    filehandle: dw 0
  1170                                  
  1171 0000EF9B FFFFFFFFFFFFFFFFFF-     carrot: db 255,255,255,255,255,255,255,255,255,230,255,254,255,255,255,255,255,255,190,70,70,69,255,254,255,255,255,255,255,17,117,70,70,70,255,254,255,255,255,111,6,42,186,138,138,137,255,254,255,255,6,42,42,42,66,255,255,255,255,254,255,42,42,42,42,42,255,255,255,255,255,254,42,42,42,42,42,6,255,255,255,255,255,254,42,42,42,42,6,255,255,255,255,255,255,254,42,42,6,6,255,255,255,255,255,255,255,254,6,6,255,255,255,255,255,255,255,255,255,254
  1171 0000EFA4 E6FFFEFFFFFFFFFFFF-
  1171 0000EFAD BE464645FFFEFFFFFF-
  1171 0000EFB6 FFFF1175464646FFFE-
  1171 0000EFBF FFFFFF6F062ABA8A8A-
  1171 0000EFC8 89FFFEFFFF062A2A2A-
  1171 0000EFD1 42FFFFFFFFFEFF2A2A-
  1171 0000EFDA 2A2A2AFFFFFFFFFFFE-
  1171 0000EFE3 2A2A2A2A2A06FFFFFF-
  1171 0000EFEC FFFFFE2A2A2A2A06FF-
  1171 0000EFF5 FFFFFFFFFFFE2A2A06-
  1171 0000EFFE 06FFFFFFFFFFFFFFFE-
  1171 0000F007 0606FFFFFFFFFFFFFF-
  1171 0000F010 FFFFFE             
  1172 0000F013 7900                    carrotsize:dw 121
